
 Start                 Length     Name                   Class
 0001:0000000000401000 0001AE7CH .text                   CODE
 0002:000000000041C000 00001820H .data                   DATA
 0003:000000000041E000 000000F8H .bss                    BSS
 0004:0000000000400000 00000000H .tls                    TLS
 0005:0000000000433000 00001584H .pdata                  PDATA


Detailed map of segments

 0001:00000000 00000408 C=CODE     S=.text    G=(none)   M=System   ALIGN=4
 0001:00000408 000018C8 C=CODE     S=.text    G=(none)   M=SysInit  ALIGN=4
 0001:00001CD0 00000018 C=CODE     S=.text    G=(none)   M=System.Types ALIGN=4
 0001:00001CE8 00000020 C=CODE     S=.text    G=(none)   M=System.UITypes ALIGN=4
 0001:00001D08 000004D4 C=CODE     S=.text    G=(none)   M=Winapi.Windows ALIGN=4
 0001:000021DC 00000024 C=CODE     S=.text    G=(none)   M=Winapi.Messages ALIGN=4
 0001:00002200 00000018 C=CODE     S=.text    G=(none)   M=System.SysConst ALIGN=4
 0001:00002218 00000020 C=CODE     S=.text    G=(none)   M=Winapi.ImageHlp ALIGN=4
 0001:00002238 00000020 C=CODE     S=.text    G=(none)   M=Winapi.SHFolder ALIGN=4
 0001:00002258 00000058 C=CODE     S=.text    G=(none)   M=Winapi.PsAPI ALIGN=4
 0001:000022B0 00000018 C=CODE     S=.text    G=(none)   M=System.RTLConsts ALIGN=4
 0001:000022C8 00000020 C=CODE     S=.text    G=(none)   M=System.Character ALIGN=4
 0001:000022E8 00000020 C=CODE     S=.text    G=(none)   M=System.Internal.ExcUtils ALIGN=4
 0001:00002308 00000140 C=CODE     S=.text    G=(none)   M=System.SysUtils ALIGN=4
 0001:00002448 00000020 C=CODE     S=.text    G=(none)   M=System.VarUtils ALIGN=4
 0001:00002468 00000020 C=CODE     S=.text    G=(none)   M=System.Variants ALIGN=4
 0001:00002488 00000028 C=CODE     S=.text    G=(none)   M=Winapi.ActiveX ALIGN=4
 0001:000024B0 00000018 C=CODE     S=.text    G=(none)   M=System.TypInfo ALIGN=4
 0001:000024C8 00000020 C=CODE     S=.text    G=(none)   M=System.Hash ALIGN=4
 0001:000024E8 00000030 C=CODE     S=.text    G=(none)   M=System.Math ALIGN=4
 0001:00002518 00000060 C=CODE     S=.text    G=(none)   M=System.Generics.Defaults ALIGN=4
 0001:00002578 00000020 C=CODE     S=.text    G=(none)   M=System.Generics.Collections ALIGN=4
 0001:00002598 00000040 C=CODE     S=.text    G=(none)   M=System.Rtti ALIGN=4
 0001:000025D8 00000040 C=CODE     S=.text    G=(none)   M=System.TimeSpan ALIGN=4
 0001:00002618 00000020 C=CODE     S=.text    G=(none)   M=System.Diagnostics ALIGN=4
 0001:00002638 00000330 C=CODE     S=.text    G=(none)   M=System.Classes ALIGN=4
 0001:00002968 00000020 C=CODE     S=.text    G=(none)   M=Winapi.Wincodec ALIGN=4
 0001:00002988 00000028 C=CODE     S=.text    G=(none)   M=Winapi.CommCtrl ALIGN=4
 0001:000029B0 00000020 C=CODE     S=.text    G=(none)   M=Winapi.Qos ALIGN=4
 0001:000029D0 00000020 C=CODE     S=.text    G=(none)   M=Winapi.Winsock2 ALIGN=4
 0001:000029F0 00000020 C=CODE     S=.text    G=(none)   M=Winapi.IpExport ALIGN=4
 0001:00002A10 00000020 C=CODE     S=.text    G=(none)   M=Winapi.ShellAPI ALIGN=4
 0001:00002A30 00000020 C=CODE     S=.text    G=(none)   M=Winapi.RegStr ALIGN=4
 0001:00002A50 00000020 C=CODE     S=.text    G=(none)   M=Winapi.WinInet ALIGN=4
 0001:00002A70 00000020 C=CODE     S=.text    G=(none)   M=Winapi.UrlMon ALIGN=4
 0001:00002A90 00000020 C=CODE     S=.text    G=(none)   M=Winapi.ObjectArray ALIGN=4
 0001:00002AB0 00000020 C=CODE     S=.text    G=(none)   M=Winapi.StructuredQueryCondition ALIGN=4
 0001:00002AD0 00000020 C=CODE     S=.text    G=(none)   M=Winapi.PropSys ALIGN=4
 0001:00002AF0 00000018 C=CODE     S=.text    G=(none)   M=Winapi.MSXMLIntf ALIGN=4
 0001:00002B08 00000028 C=CODE     S=.text    G=(none)   M=Winapi.ShlObj ALIGN=4
 0001:00002B30 00000020 C=CODE     S=.text    G=(none)   M=Winapi.KnownFolders ALIGN=4
 0001:00002B50 00000018 C=CODE     S=.text    G=(none)   M=System.Masks ALIGN=4
 0001:00002B68 00000020 C=CODE     S=.text    G=(none)   M=System.StrUtils ALIGN=4
 0001:00002B88 00000040 C=CODE     S=.text    G=(none)   M=System.DateUtils ALIGN=4
 0001:00002BC8 00000040 C=CODE     S=.text    G=(none)   M=System.IOUtils ALIGN=4
 0001:00002C08 00000020 C=CODE     S=.text    G=(none)   M=System.IniFiles ALIGN=4
 0001:00002C28 00000040 C=CODE     S=.text    G=(none)   M=System.Win.Registry ALIGN=4
 0001:00002C68 00000020 C=CODE     S=.text    G=(none)   M=System.UIConsts ALIGN=4
 0001:00002C88 00000020 C=CODE     S=.text    G=(none)   M=Vcl.Consts ALIGN=4
 0001:00002CA8 000001F0 C=CODE     S=.text    G=(none)   M=Vcl.Graphics ALIGN=4
 0001:00002E98 00000020 C=CODE     S=.text    G=(none)   M=Winapi.MultiMon ALIGN=4
 0001:00002EB8 00000020 C=CODE     S=.text    G=(none)   M=System.Contnrs ALIGN=4
 0001:00002ED8 00000020 C=CODE     S=.text    G=(none)   M=System.ImageList ALIGN=4
 0001:00002EF8 00000040 C=CODE     S=.text    G=(none)   M=System.Messaging ALIGN=4
 0001:00002F38 00000020 C=CODE     S=.text    G=(none)   M=System.Actions ALIGN=4
 0001:00002F58 00000028 C=CODE     S=.text    G=(none)   M=Winapi.Imm ALIGN=4
 0001:00002F80 00000018 C=CODE     S=.text    G=(none)   M=Vcl.ActnList ALIGN=4
 0001:00002F98 00000020 C=CODE     S=.text    G=(none)   M=System.HelpIntfs ALIGN=4
 0001:00002FB8 00000020 C=CODE     S=.text    G=(none)   M=System.SyncObjs ALIGN=4
 0001:00002FD8 00000020 C=CODE     S=.text    G=(none)   M=Winapi.UxTheme ALIGN=4
 0001:00002FF8 00000028 C=CODE     S=.text    G=(none)   M=Winapi.Dwmapi ALIGN=4
 0001:00003020 00000020 C=CODE     S=.text    G=(none)   M=System.Win.Crtl ALIGN=4
 0001:00003040 00000018 C=CODE     S=.text    G=(none)   M=System.ZLib ALIGN=4
 0001:00003058 00000020 C=CODE     S=.text    G=(none)   M=Vcl.GraphUtil ALIGN=4
 0001:00003078 000004A0 C=CODE     S=.text    G=(none)   M=Vcl.StdCtrls ALIGN=4
 0001:00003518 00000020 C=CODE     S=.text    G=(none)   M=System.MaskUtils ALIGN=4
 0001:00003538 00000020 C=CODE     S=.text    G=(none)   M=Vcl.Clipbrd ALIGN=4
 0001:00003558 00000020 C=CODE     S=.text    G=(none)   M=Vcl.Mask ALIGN=4
 0001:00003578 00000028 C=CODE     S=.text    G=(none)   M=Winapi.CommDlg ALIGN=4
 0001:000035A0 00000020 C=CODE     S=.text    G=(none)   M=Winapi.WinSpool ALIGN=4
 0001:000035C0 00000018 C=CODE     S=.text    G=(none)   M=Vcl.Printers ALIGN=4
 0001:000035D8 00000028 C=CODE     S=.text    G=(none)   M=Winapi.RichEdit ALIGN=4
 0001:00003600 00000018 C=CODE     S=.text    G=(none)   M=Vcl.ToolWin ALIGN=4
 0001:00003618 00000020 C=CODE     S=.text    G=(none)   M=Vcl.ListActns ALIGN=4
 0001:00003638 00000020 C=CODE     S=.text    G=(none)   M=Vcl.ComStrs ALIGN=4
 0001:00003658 00000020 C=CODE     S=.text    G=(none)   M=Vcl.StdActns ALIGN=4
 0001:00003678 00000320 C=CODE     S=.text    G=(none)   M=Vcl.ComCtrls ALIGN=4
 0001:00003998 00000020 C=CODE     S=.text    G=(none)   M=System.WideStrUtils ALIGN=4
 0001:000039B8 00000028 C=CODE     S=.text    G=(none)   M=Winapi.Dlgs ALIGN=4
 0001:000039E0 00000018 C=CODE     S=.text    G=(none)   M=Vcl.Dialogs ALIGN=4
 0001:000039F8 000000C0 C=CODE     S=.text    G=(none)   M=Vcl.ExtCtrls ALIGN=4
 0001:00003AB8 00000060 C=CODE     S=.text    G=(none)   M=Vcl.Themes ALIGN=4
 0001:00003B18 00000040 C=CODE     S=.text    G=(none)   M=System.AnsiStrings ALIGN=4
 0001:00003B58 00000020 C=CODE     S=.text    G=(none)   M=System.Win.ComConst ALIGN=4
 0001:00003B78 00000040 C=CODE     S=.text    G=(none)   M=System.Win.ComObj ALIGN=4
 0001:00003BB8 00000020 C=CODE     S=.text    G=(none)   M=System.Win.Taskbar ALIGN=4
 0001:00003BD8 00000020 C=CODE     S=.text    G=(none)   M=System.Win.TaskbarCore ALIGN=4
 0001:00003BF8 00000028 C=CODE     S=.text    G=(none)   M=Winapi.ShellScaling ALIGN=4
 0001:00003C20 00000018 C=CODE     S=.text    G=(none)   M=Winapi.FlatSB ALIGN=4
 0001:00003C38 000000B0 C=CODE     S=.text    G=(none)   M=Vcl.Forms ALIGN=4
 0001:00003CE8 00000020 C=CODE     S=.text    G=(none)   M=Vcl.ImgList ALIGN=4
 0001:00003D08 00000020 C=CODE     S=.text    G=(none)   M=Vcl.Menus ALIGN=4
 0001:00003D28 00000028 C=CODE     S=.text    G=(none)   M=Winapi.TpcShrd ALIGN=4
 0001:00003D50 000000B0 C=CODE     S=.text    G=(none)   M=Winapi.MsCTF ALIGN=4
 0001:00003E00 00000020 C=CODE     S=.text    G=(none)   M=Winapi.MsInkAut ALIGN=4
 0001:00003E20 00000020 C=CODE     S=.text    G=(none)   M=Winapi.PenInputPanel ALIGN=4
 0001:00003E40 000008E8 C=CODE     S=.text    G=(none)   M=Vcl.Controls ALIGN=4
 0001:00004728 00001768 C=CODE     S=.text    G=(none)   M=JLLabel  ALIGN=4
 0001:00005E90 00004750 C=CODE     S=.text    G=(none)   M=Hemibtn  ALIGN=4
 0001:0000A5E0 00002AA0 C=CODE     S=.text    G=(none)   M=CPDrv    ALIGN=4
 0001:0000D080 00000070 C=CODE     S=.text    G=(none)   M=CPDReg   ALIGN=4
 0001:0000D0F0 000056A0 C=CODE     S=.text    G=(none)   M=Console  ALIGN=4
 0001:00012790 000001F8 C=CODE     S=.text    G=(none)   M=Vcl.Grids ALIGN=4
 0001:00012988 00001698 C=CODE     S=.text    G=(none)   M=Cologrid ALIGN=4
 0001:00014020 000009A0 C=CODE     S=.text    G=(none)   M=OEdit    ALIGN=4
 0001:000149C0 00005660 C=CODE     S=.text    G=(none)   M=Console2 ALIGN=4
 0001:0001A020 00000E5C C=CODE     S=.text    G=(none)   M=.zlog_requires ALIGN=4
 0002:00000000 00000178 C=DATA     S=.data    G=DGROUP   M=SysInit  ALIGN=4
 0002:00000178 00000044 C=DATA     S=.data    G=DGROUP   M=Winapi.Windows ALIGN=4
 0002:000001BC 00000008 C=DATA     S=.data    G=DGROUP   M=Winapi.Messages ALIGN=4
 0002:000001C4 0000000C C=DATA     S=.data    G=DGROUP   M=Winapi.PsAPI ALIGN=4
 0002:000001D0 00000008 C=DATA     S=.data    G=DGROUP   M=Winapi.ActiveX ALIGN=4
 0002:000001D8 00000008 C=DATA     S=.data    G=DGROUP   M=Winapi.CommCtrl ALIGN=4
 0002:000001E0 00000008 C=DATA     S=.data    G=DGROUP   M=Winapi.Qos ALIGN=4
 0002:000001E8 00000008 C=DATA     S=.data    G=DGROUP   M=Winapi.Winsock2 ALIGN=4
 0002:000001F0 00000008 C=DATA     S=.data    G=DGROUP   M=Winapi.IpExport ALIGN=4
 0002:000001F8 00000008 C=DATA     S=.data    G=DGROUP   M=Winapi.ShellAPI ALIGN=4
 0002:00000200 00000008 C=DATA     S=.data    G=DGROUP   M=Winapi.RegStr ALIGN=4
 0002:00000208 00000008 C=DATA     S=.data    G=DGROUP   M=Winapi.WinInet ALIGN=4
 0002:00000210 00000008 C=DATA     S=.data    G=DGROUP   M=Winapi.UrlMon ALIGN=4
 0002:00000218 00000008 C=DATA     S=.data    G=DGROUP   M=Winapi.ObjectArray ALIGN=4
 0002:00000220 00000008 C=DATA     S=.data    G=DGROUP   M=Winapi.StructuredQueryCondition ALIGN=4
 0002:00000228 00000008 C=DATA     S=.data    G=DGROUP   M=Winapi.PropSys ALIGN=4
 0002:00000230 00000008 C=DATA     S=.data    G=DGROUP   M=Winapi.ShlObj ALIGN=4
 0002:00000238 00000008 C=DATA     S=.data    G=DGROUP   M=Winapi.KnownFolders ALIGN=4
 0002:00000240 00000008 C=DATA     S=.data    G=DGROUP   M=Winapi.Imm ALIGN=4
 0002:00000248 00000008 C=DATA     S=.data    G=DGROUP   M=Winapi.Dwmapi ALIGN=4
 0002:00000250 00000008 C=DATA     S=.data    G=DGROUP   M=System.Win.Crtl ALIGN=4
 0002:00000258 00000008 C=DATA     S=.data    G=DGROUP   M=Winapi.CommDlg ALIGN=4
 0002:00000260 00000008 C=DATA     S=.data    G=DGROUP   M=Winapi.WinSpool ALIGN=4
 0002:00000268 00000008 C=DATA     S=.data    G=DGROUP   M=Winapi.RichEdit ALIGN=4
 0002:00000270 00000008 C=DATA     S=.data    G=DGROUP   M=Winapi.Dlgs ALIGN=4
 0002:00000278 00000008 C=DATA     S=.data    G=DGROUP   M=Winapi.ShellScaling ALIGN=4
 0002:00000280 00000008 C=DATA     S=.data    G=DGROUP   M=Winapi.TpcShrd ALIGN=4
 0002:00000288 00000028 C=DATA     S=.data    G=DGROUP   M=Winapi.MsCTF ALIGN=4
 0002:000002B0 00000008 C=DATA     S=.data    G=DGROUP   M=Winapi.MsInkAut ALIGN=4
 0002:000002B8 00000008 C=DATA     S=.data    G=DGROUP   M=Winapi.PenInputPanel ALIGN=4
 0002:000002C0 00000124 C=DATA     S=.data    G=DGROUP   M=JLLabel  ALIGN=4
 0002:000003E4 00000364 C=DATA     S=.data    G=DGROUP   M=Hemibtn  ALIGN=4
 0002:00000748 000002DC C=DATA     S=.data    G=DGROUP   M=CPDrv    ALIGN=4
 0002:00000A24 00000010 C=DATA     S=.data    G=DGROUP   M=CPDReg   ALIGN=4
 0002:00000A34 000005E4 C=DATA     S=.data    G=DGROUP   M=Console  ALIGN=4
 0002:00001018 00000138 C=DATA     S=.data    G=DGROUP   M=Cologrid ALIGN=4
 0002:00001150 000000A8 C=DATA     S=.data    G=DGROUP   M=OEdit    ALIGN=4
 0002:000011F8 000005E4 C=DATA     S=.data    G=DGROUP   M=Console2 ALIGN=4
 0003:00000000 00000050 C=BSS      S=.bss     G=DGROUP   M=SysInit  ALIGN=4
 0003:00000050 00000010 C=BSS      S=.bss     G=DGROUP   M=Winapi.Windows ALIGN=4
 0003:00000060 00000004 C=BSS      S=.bss     G=DGROUP   M=Winapi.Messages ALIGN=4
 0003:00000064 0000000C C=BSS      S=.bss     G=DGROUP   M=Winapi.PsAPI ALIGN=4
 0003:00000070 00000004 C=BSS      S=.bss     G=DGROUP   M=Winapi.ActiveX ALIGN=4
 0003:00000074 00000004 C=BSS      S=.bss     G=DGROUP   M=Winapi.CommCtrl ALIGN=4
 0003:00000078 00000004 C=BSS      S=.bss     G=DGROUP   M=Winapi.Qos ALIGN=4
 0003:0000007C 00000004 C=BSS      S=.bss     G=DGROUP   M=Winapi.Winsock2 ALIGN=4
 0003:00000080 00000004 C=BSS      S=.bss     G=DGROUP   M=Winapi.IpExport ALIGN=4
 0003:00000084 00000004 C=BSS      S=.bss     G=DGROUP   M=Winapi.ShellAPI ALIGN=4
 0003:00000088 00000004 C=BSS      S=.bss     G=DGROUP   M=Winapi.RegStr ALIGN=4
 0003:0000008C 00000004 C=BSS      S=.bss     G=DGROUP   M=Winapi.WinInet ALIGN=4
 0003:00000090 00000004 C=BSS      S=.bss     G=DGROUP   M=Winapi.UrlMon ALIGN=4
 0003:00000094 00000004 C=BSS      S=.bss     G=DGROUP   M=Winapi.ObjectArray ALIGN=4
 0003:00000098 00000004 C=BSS      S=.bss     G=DGROUP   M=Winapi.StructuredQueryCondition ALIGN=4
 0003:0000009C 00000004 C=BSS      S=.bss     G=DGROUP   M=Winapi.PropSys ALIGN=4
 0003:000000A0 00000004 C=BSS      S=.bss     G=DGROUP   M=Winapi.ShlObj ALIGN=4
 0003:000000A4 00000004 C=BSS      S=.bss     G=DGROUP   M=Winapi.KnownFolders ALIGN=4
 0003:000000A8 00000004 C=BSS      S=.bss     G=DGROUP   M=Winapi.Imm ALIGN=4
 0003:000000AC 00000004 C=BSS      S=.bss     G=DGROUP   M=Winapi.Dwmapi ALIGN=4
 0003:000000B0 00000004 C=BSS      S=.bss     G=DGROUP   M=System.Win.Crtl ALIGN=4
 0003:000000B4 00000004 C=BSS      S=.bss     G=DGROUP   M=Winapi.CommDlg ALIGN=4
 0003:000000B8 00000004 C=BSS      S=.bss     G=DGROUP   M=Winapi.WinSpool ALIGN=4
 0003:000000BC 00000004 C=BSS      S=.bss     G=DGROUP   M=Winapi.RichEdit ALIGN=4
 0003:000000C0 00000004 C=BSS      S=.bss     G=DGROUP   M=Winapi.Dlgs ALIGN=4
 0003:000000C4 00000004 C=BSS      S=.bss     G=DGROUP   M=Winapi.ShellScaling ALIGN=4
 0003:000000C8 00000004 C=BSS      S=.bss     G=DGROUP   M=Winapi.TpcShrd ALIGN=4
 0003:000000CC 00000004 C=BSS      S=.bss     G=DGROUP   M=Winapi.MsCTF ALIGN=4
 0003:000000D0 00000004 C=BSS      S=.bss     G=DGROUP   M=Winapi.MsInkAut ALIGN=4
 0003:000000D4 00000004 C=BSS      S=.bss     G=DGROUP   M=Winapi.PenInputPanel ALIGN=4
 0003:000000D8 00000004 C=BSS      S=.bss     G=DGROUP   M=JLLabel  ALIGN=4
 0003:000000DC 00000004 C=BSS      S=.bss     G=DGROUP   M=Hemibtn  ALIGN=4
 0003:000000E0 00000004 C=BSS      S=.bss     G=DGROUP   M=CPDrv    ALIGN=4
 0003:000000E4 00000004 C=BSS      S=.bss     G=DGROUP   M=CPDReg   ALIGN=4
 0003:000000E8 00000004 C=BSS      S=.bss     G=DGROUP   M=Console  ALIGN=4
 0003:000000EC 00000004 C=BSS      S=.bss     G=DGROUP   M=Cologrid ALIGN=4
 0003:000000F0 00000004 C=BSS      S=.bss     G=DGROUP   M=OEdit    ALIGN=4
 0003:000000F4 00000004 C=BSS      S=.bss     G=DGROUP   M=Console2 ALIGN=4
 0005:00000000 000000FC C=PDATA    S=.pdata   G=(none)   M=SysInit  ALIGN=4
 0005:000000FC 00000048 C=PDATA    S=.pdata   G=(none)   M=Winapi.Windows ALIGN=4
 0005:00000144 00000018 C=PDATA    S=.pdata   G=(none)   M=Winapi.Messages ALIGN=4
 0005:0000015C 00000018 C=PDATA    S=.pdata   G=(none)   M=Winapi.PsAPI ALIGN=4
 0005:00000174 00000018 C=PDATA    S=.pdata   G=(none)   M=Winapi.ActiveX ALIGN=4
 0005:0000018C 00000018 C=PDATA    S=.pdata   G=(none)   M=Winapi.CommCtrl ALIGN=4
 0005:000001A4 00000018 C=PDATA    S=.pdata   G=(none)   M=Winapi.Qos ALIGN=4
 0005:000001BC 00000018 C=PDATA    S=.pdata   G=(none)   M=Winapi.Winsock2 ALIGN=4
 0005:000001D4 00000018 C=PDATA    S=.pdata   G=(none)   M=Winapi.IpExport ALIGN=4
 0005:000001EC 00000018 C=PDATA    S=.pdata   G=(none)   M=Winapi.ShellAPI ALIGN=4
 0005:00000204 00000018 C=PDATA    S=.pdata   G=(none)   M=Winapi.RegStr ALIGN=4
 0005:0000021C 00000018 C=PDATA    S=.pdata   G=(none)   M=Winapi.WinInet ALIGN=4
 0005:00000234 00000018 C=PDATA    S=.pdata   G=(none)   M=Winapi.UrlMon ALIGN=4
 0005:0000024C 00000018 C=PDATA    S=.pdata   G=(none)   M=Winapi.ObjectArray ALIGN=4
 0005:00000264 00000018 C=PDATA    S=.pdata   G=(none)   M=Winapi.StructuredQueryCondition ALIGN=4
 0005:0000027C 00000018 C=PDATA    S=.pdata   G=(none)   M=Winapi.PropSys ALIGN=4
 0005:00000294 00000018 C=PDATA    S=.pdata   G=(none)   M=Winapi.ShlObj ALIGN=4
 0005:000002AC 00000018 C=PDATA    S=.pdata   G=(none)   M=Winapi.KnownFolders ALIGN=4
 0005:000002C4 00000018 C=PDATA    S=.pdata   G=(none)   M=Winapi.Imm ALIGN=4
 0005:000002DC 00000018 C=PDATA    S=.pdata   G=(none)   M=Winapi.Dwmapi ALIGN=4
 0005:000002F4 00000018 C=PDATA    S=.pdata   G=(none)   M=System.Win.Crtl ALIGN=4
 0005:0000030C 00000018 C=PDATA    S=.pdata   G=(none)   M=Winapi.CommDlg ALIGN=4
 0005:00000324 00000018 C=PDATA    S=.pdata   G=(none)   M=Winapi.WinSpool ALIGN=4
 0005:0000033C 00000018 C=PDATA    S=.pdata   G=(none)   M=Winapi.RichEdit ALIGN=4
 0005:00000354 00000018 C=PDATA    S=.pdata   G=(none)   M=Winapi.Dlgs ALIGN=4
 0005:0000036C 00000018 C=PDATA    S=.pdata   G=(none)   M=Winapi.ShellScaling ALIGN=4
 0005:00000384 00000018 C=PDATA    S=.pdata   G=(none)   M=Winapi.TpcShrd ALIGN=4
 0005:0000039C 00000030 C=PDATA    S=.pdata   G=(none)   M=Winapi.MsCTF ALIGN=4
 0005:000003CC 00000018 C=PDATA    S=.pdata   G=(none)   M=Winapi.MsInkAut ALIGN=4
 0005:000003E4 00000018 C=PDATA    S=.pdata   G=(none)   M=Winapi.PenInputPanel ALIGN=4
 0005:000003FC 000000A8 C=PDATA    S=.pdata   G=(none)   M=JLLabel  ALIGN=4
 0005:000004A4 000002DC C=PDATA    S=.pdata   G=(none)   M=Hemibtn  ALIGN=4
 0005:00000780 00000264 C=PDATA    S=.pdata   G=(none)   M=CPDrv    ALIGN=4
 0005:000009E4 00000024 C=PDATA    S=.pdata   G=(none)   M=CPDReg   ALIGN=4
 0005:00000A08 000004F8 C=PDATA    S=.pdata   G=(none)   M=Console  ALIGN=4
 0005:00000F00 00000108 C=PDATA    S=.pdata   G=(none)   M=Cologrid ALIGN=4
 0005:00001008 00000084 C=PDATA    S=.pdata   G=(none)   M=OEdit    ALIGN=4
 0005:0000108C 000004F8 C=PDATA    S=.pdata   G=(none)   M=Console2 ALIGN=4


  Address             Publics by Name

 0001:0001A020       .zlog_requires..zlog_requires
 0001:0001AE50       .zlog_requires.@GetPackageInfoTable
 0001:0001AE60       .zlog_requires.@PackageLoad
 0001:0001AE70       .zlog_requires.@PackageUnload
 0005:00000FF0       Cologrid.$pdata$_ZN8Cologrid12FinalizationEv
 0005:00000FFC       Cologrid.$pdata$_ZN8Cologrid14initializationEv
 0005:00000F24       Cologrid.$pdata$_ZN8Cologrid6TMgrid10GetPaletteEv
 0005:00000F78       Cologrid.$pdata$_ZN8Cologrid6TMgrid11AutoDestroyEv
 0005:00000F54       Cologrid.$pdata$_ZN8Cologrid6TMgrid11setOddColorEN6System7Uitypes6TColorE
 0005:00000FC0       Cologrid.$pdata$_ZN8Cologrid6TMgrid12DrawCellTextEiiRKN6System5Types5TRectE
 0005:00000F60       Cologrid.$pdata$_ZN8Cologrid6TMgrid12setEvencolorEN6System7Uitypes6TColorE
 0005:00000F18       Cologrid.$pdata$_ZN8Cologrid6TMgrid12SetOddBitmapEPN3Vcl8Graphics7TBitmapE
 0005:00000F30       Cologrid.$pdata$_ZN8Cologrid6TMgrid13SetEvenBitmapEPN3Vcl8Graphics7TBitmapE
 0005:00000F6C       Cologrid.$pdata$_ZN8Cologrid6TMgrid14AutoInitializeEv
 0005:00000F48       Cologrid.$pdata$_ZN8Cologrid6TMgrid14setBorderColorEN6System7Uitypes6TColorE
 0005:00000F0C       Cologrid.$pdata$_ZN8Cologrid6TMgrid15SetBorderBitmapEPN3Vcl8Graphics7TBitmapE
 0005:00000F3C       Cologrid.$pdata$_ZN8Cologrid6TMgrid16setCellAlignmentEN6System7Classes10TAlignmentE
 0005:00000FB4       Cologrid.$pdata$_ZN8Cologrid6TMgrid5PaintEv
 0005:00000FA8       Cologrid.$pdata$_ZN8Cologrid6TMgrid6LoadedEv
 0005:00000FD8       Cologrid.$pdata$_ZN8Cologrid6TMgrid8DrawCellEiiRKN6System5Types5TRectENS1_3SetIN3Vcl5Grids12Vcl_Grids__3ELS9_0ELS9_5EEE
 0005:00000F84       Cologrid.$pdata$_ZN8Cologrid6TMgridC3EPN6System7Classes10TComponentE
 0005:00000F9C       Cologrid.$pdata$_ZN8Cologrid6TMgridD0Ev
 0005:00000F00       Cologrid.$pdata$_ZN8Cologrid8RegisterEv
 0002:00001148       Cologrid.$unwind$_ZN8Cologrid12FinalizationEv
 0002:0000114C       Cologrid.$unwind$_ZN8Cologrid14initializationEv
 0002:00001038       Cologrid.$unwind$_ZN8Cologrid6TMgrid10GetPaletteEv
 0002:00001074       Cologrid.$unwind$_ZN8Cologrid6TMgrid11AutoDestroyEv
 0002:0000105C       Cologrid.$unwind$_ZN8Cologrid6TMgrid11setOddColorEN6System7Uitypes6TColorE
 0002:000010D4       Cologrid.$unwind$_ZN8Cologrid6TMgrid12DrawCellTextEiiRKN6System5Types5TRectE
 0002:00001064       Cologrid.$unwind$_ZN8Cologrid6TMgrid12setEvencolorEN6System7Uitypes6TColorE
 0002:0000102C       Cologrid.$unwind$_ZN8Cologrid6TMgrid12SetOddBitmapEPN3Vcl8Graphics7TBitmapE
 0002:00001040       Cologrid.$unwind$_ZN8Cologrid6TMgrid13SetEvenBitmapEPN3Vcl8Graphics7TBitmapE
 0002:0000106C       Cologrid.$unwind$_ZN8Cologrid6TMgrid14AutoInitializeEv
 0002:00001054       Cologrid.$unwind$_ZN8Cologrid6TMgrid14setBorderColorEN6System7Uitypes6TColorE
 0002:00001020       Cologrid.$unwind$_ZN8Cologrid6TMgrid15SetBorderBitmapEPN3Vcl8Graphics7TBitmapE
 0002:0000104C       Cologrid.$unwind$_ZN8Cologrid6TMgrid16setCellAlignmentEN6System7Classes10TAlignmentE
 0002:000010CC       Cologrid.$unwind$_ZN8Cologrid6TMgrid5PaintEv
 0002:000010C4       Cologrid.$unwind$_ZN8Cologrid6TMgrid6LoadedEv
 0002:0000110C       Cologrid.$unwind$_ZN8Cologrid6TMgrid8DrawCellEiiRKN6System5Types5TRectENS1_3SetIN3Vcl5Grids12Vcl_Grids__3ELS9_0ELS9_5EEE
 0002:0000107C       Cologrid.$unwind$_ZN8Cologrid6TMgridC3EPN6System7Classes10TComponentE
 0002:000010B8       Cologrid.$unwind$_ZN8Cologrid6TMgridD0Ev
 0002:00001018       Cologrid.$unwind$_ZN8Cologrid8RegisterEv
 0003:000000EC       Cologrid..2
 0001:00012AB0       Cologrid..TMgrid
 0001:00014010       Cologrid.Cologrid
 0001:00014000       Cologrid.Finalization
 0001:000136D0       Cologrid.Register
 0001:00013930       Cologrid.TMgrid.AutoDestroy
 0001:00013840       Cologrid.TMgrid.AutoInitialize
 0001:00013970       Cologrid.TMgrid.Create
 0001:00013A20       Cologrid.TMgrid.Destroy
 0001:00013BA0       Cologrid.TMgrid.DrawCell
 0001:00013A90       Cologrid.TMgrid.DrawCellText
 0001:00013770       Cologrid.TMgrid.GetPalette
 0001:00013A70       Cologrid.TMgrid.Loaded
 0001:00013A80       Cologrid.TMgrid.Paint
 0001:00013710       Cologrid.TMgrid.SetBorderBitmap
 0001:000137E0       Cologrid.TMgrid.setBorderColor
 0001:000137C0       Cologrid.TMgrid.setCellAlignment
 0001:00013790       Cologrid.TMgrid.SetEvenBitmap
 0001:00013820       Cologrid.TMgrid.setEvencolor
 0001:00013740       Cologrid.TMgrid.SetOddBitmap
 0001:00013800       Cologrid.TMgrid.setOddColor
 0005:00000A68       Console.$pdata$_ZN7Console10TFixedFont10SetBkColorEN6System7Uitypes6TColorE
 0005:00000A50       Console.$pdata$_ZN7Console10TFixedFont6AssignEPN6System7Classes11TPersistentE
 0005:00000A38       Console.$pdata$_ZN7Console10TFixedFontC3Ev
 0005:00000EE8       Console.$pdata$_ZN7Console12FinalizationEv
 0005:00000DF8       Console.$pdata$_ZN7Console12TAttrManager10AllocIndexEv
 0005:00000DC8       Console.$pdata$_ZN7Console12TAttrManager10InFreeListEPv
 0005:00000DE0       Console.$pdata$_ZN7Console12TAttrManager13NextFreeIndexEPv
 0005:00000DD4       Console.$pdata$_ZN7Console12TAttrManager14FirstFreeIndexEv
 0005:00000E10       Console.$pdata$_ZN7Console12TAttrManager5ClearEv
 0005:00000E28       Console.$pdata$_ZN7Console12TAttrManager7GetAttrEi
 0005:00000E34       Console.$pdata$_ZN7Console12TAttrManager7SetAttrEiPNS_5TAttrE
 0005:00000DEC       Console.$pdata$_ZN7Console12TAttrManager7SetFreeEi
 0005:00000E04       Console.$pdata$_ZN7Console12TAttrManager8AllocateEPNS_10TFixedFontE
 0005:00000DBC       Console.$pdata$_ZN7Console12TAttrManager8GetCountEv
 0005:00000E1C       Console.$pdata$_ZN7Console12TAttrManager9ReferenceEii
 0005:00000D98       Console.$pdata$_ZN7Console12TAttrManagerC3Ev
 0005:00000DB0       Console.$pdata$_ZN7Console12TAttrManagerD0Ev
 0005:00000E94       Console.$pdata$_ZN7Console13TColorConsole10SetMetricsERK14tagTEXTMETRICW
 0005:00000EC4       Console.$pdata$_ZN7Console13TColorConsole10WriteBlockEiiPcj
 0005:00000E70       Console.$pdata$_ZN7Console13TColorConsole12ResizeBufferEv
 0005:00000ED0       Console.$pdata$_ZN7Console13TColorConsole5PaintEv
 0005:00000EB8       Console.$pdata$_ZN7Console13TColorConsole8FillAttrEiij
 0005:00000E64       Console.$pdata$_ZN7Console13TColorConsole8IndexPtrEii
 0005:00000EA0       Console.$pdata$_ZN7Console13TColorConsole9WriteFillEiicj
 0005:00000E40       Console.$pdata$_ZN7Console13TColorConsoleC3EPN6System7Classes10TComponentE
 0005:00000E58       Console.$pdata$_ZN7Console13TColorConsoleD0Ev
 0005:00000EF4       Console.$pdata$_ZN7Console14initializationEv
 0005:00000A14       Console.$pdata$_ZN7Console3MaxEii
 0005:00000A08       Console.$pdata$_ZN7Console3MinEii
 0005:00000D80       Console.$pdata$_ZN7Console5TAttrC3EPNS_10TFixedFontE
 0005:00000CB4       Console.$pdata$_ZN7Console7CrtOpenERN6System8TTextRecE
 0005:00000A2C       Console.$pdata$_ZN7Console7FillIntEPvji
 0005:00000CA8       Console.$pdata$_ZN7Console8CrtCloseERN6System8TTextRecE
 0005:00000C9C       Console.$pdata$_ZN7Console8CrtInputERN6System8TTextRecE
 0005:00000A20       Console.$pdata$_ZN7Console8ExchangeERPvS1_
 0005:00000EDC       Console.$pdata$_ZN7Console8RegisterEv
 0005:00000B7C       Console.$pdata$_ZN7Console8TConsole10CMScrollByERNS_11TCMScrollByE
 0005:00000B58       Console.$pdata$_ZN7Console8TConsole10HideCursorEv
 0005:00000C60       Console.$pdata$_ZN7Console8TConsole10KeyPressedEv
 0005:00000B10       Console.$pdata$_ZN7Console8TConsole10SetMetricsERK14tagTEXTMETRICW
 0005:00000CCC       Console.$pdata$_ZN7Console8TConsole10SetOptionsEN6System3SetINS_14TConsoleOptionELS3_0ELS3_7EEE
 0005:00000B4C       Console.$pdata$_ZN7Console8TConsole10ShowCursorEv
 0005:00000D38       Console.$pdata$_ZN7Console8TConsole10WMSetFocusERN6Winapi8Messages11TWMSetFocusE
 0005:00000BF4       Console.$pdata$_ZN7Console8TConsole10WriteBlockEiiPcj
 0005:00000D68       Console.$pdata$_ZN7Console8TConsole11DoCtrlBreakEv
 0005:00000AF8       Console.$pdata$_ZN7Console8TConsole11FontChangedEPN6System7TObjectE
 0005:00000BAC       Console.$pdata$_ZN7Console8TConsole11TrackCursorEv
 0005:00000D44       Console.$pdata$_ZN7Console8TConsole11WMKillFocusERN6Winapi8Messages12TWMKillFocusE
 0005:00000C3C       Console.$pdata$_ZN7Console8TConsole11WriteStringEN6System13UnicodeStringE
 0005:00000AA4       Console.$pdata$_ZN7Console8TConsole12CreateParamsERN3Vcl8Controls13TCreateParamsE
 0005:00000B70       Console.$pdata$_ZN7Console8TConsole12LazyScrollByEii
 0005:00000AC8       Console.$pdata$_ZN7Console8TConsole12ResizeBufferEv
 0005:00000D5C       Console.$pdata$_ZN7Console8TConsole12WMEraseBkgndERN6Winapi8Messages13TWMEraseBkgndE
 0005:00000D50       Console.$pdata$_ZN7Console8TConsole12WMGetDlgCodeERN6Winapi8Messages11TWMNoParamsE
 0005:00000BA0       Console.$pdata$_ZN7Console8TConsole13CMTrackCursorEPv
 0005:00000BB8       Console.$pdata$_ZN7Console8TConsole13SetScrollbarsEv
 0005:00000C24       Console.$pdata$_ZN7Console8TConsole13WriteCodedBufEPcj
 0005:00000BC4       Console.$pdata$_ZN7Console8TConsole14InternalClrScrEv
 0005:00000B94       Console.$pdata$_ZN7Console8TConsole15LazyTrackCursorEv
 0005:00000BDC       Console.$pdata$_ZN7Console8TConsole15RecalibrateFontEv
 0005:00000B1C       Console.$pdata$_ZN7Console8TConsole18RecalcSizeAndRangeEv
 0005:00000AB0       Console.$pdata$_ZN7Console8TConsole26DefaultProcessControlCodesEPcj
 0005:00000CD8       Console.$pdata$_ZN7Console8TConsole5PaintEv
 0005:00000BE8       Console.$pdata$_ZN7Console8TConsole6ClrEolEv
 0005:00000BD0       Console.$pdata$_ZN7Console8TConsole6ClrScrEv
 0005:00000A98       Console.$pdata$_ZN7Console8TConsole6LoadedEv
 0005:00000CE4       Console.$pdata$_ZN7Console8TConsole6WMSizeERN6Winapi8Messages7TWMSizeE
 0005:00000D2C       Console.$pdata$_ZN7Console8TConsole7KeyDownERtN6System3SetINS2_7Classes17System_Classes__1ELS5_0ELS5_10EEE
 0005:00000C84       Console.$pdata$_ZN7Console8TConsole7ReadBufEPcj
 0005:00000C6C       Console.$pdata$_ZN7Console8TConsole7ReadKeyEv
 0005:00000AD4       Console.$pdata$_ZN7Console8TConsole7SetColsEi
 0005:00000AEC       Console.$pdata$_ZN7Console8TConsole7SetFontEPNS_10TFixedFontE
 0005:00000B28       Console.$pdata$_ZN7Console8TConsole7SetNameEN6System13UnicodeStringE
 0005:00000AE0       Console.$pdata$_ZN7Console8TConsole7SetRowsEi
 0005:00000B64       Console.$pdata$_ZN7Console8TConsole8CursorToEii
 0005:00000CFC       Console.$pdata$_ZN7Console8TConsole8DoScrollEiii
 0005:00000D20       Console.$pdata$_ZN7Console8TConsole8KeyPressERw
 0005:00000B88       Console.$pdata$_ZN7Console8TConsole8ScrollToEii
 0005:00000B40       Console.$pdata$_ZN7Console8TConsole8ShowTextEii
 0005:00000ABC       Console.$pdata$_ZN7Console8TConsole8WMCreateEPv
 0005:00000C18       Console.$pdata$_ZN7Console8TConsole8WriteBufEPcj
 0005:00000CC0       Console.$pdata$_ZN7Console8TConsole9AssignCrtERN6System8TextfileE
 0005:00000D74       Console.$pdata$_ZN7Console8TConsole9MouseDownEN6System7Uitypes12TMouseButtonENS1_3SetINS1_7Classes17System_Classes__1ELS6_0ELS6_10EEEii
 0005:00000B34       Console.$pdata$_ZN7Console8TConsole9ScreenPtrEii
 0005:00000D08       Console.$pdata$_ZN7Console8TConsole9WMHScrollERN6Winapi8Messages9TWMScrollE
 0005:00000D14       Console.$pdata$_ZN7Console8TConsole9WMVScrollERN6Winapi8Messages9TWMScrollE
 0005:00000C30       Console.$pdata$_ZN7Console8TConsole9WriteCharEc
 0005:00000C54       Console.$pdata$_ZN7Console8TConsole9WriteFillEiicj
 0005:00000A74       Console.$pdata$_ZN7Console8TConsoleC3EPN6System7Classes10TComponentE
 0005:00000A8C       Console.$pdata$_ZN7Console8TConsoleD0Ev
 0005:00000C90       Console.$pdata$_ZN7Console9CrtOutputERN6System8TTextRecE
 0005:00000E88       Console.$pdata$_ZZN7Console13TColorConsole10SetMetricsERK14tagTEXTMETRICWE5CheckPvii
 0005:00000EAC       Console.$pdata$_ZZN7Console13TColorConsole8FillAttrEiijE11ReplaceAttrPviPij
 0005:00000CF0       Console.$pdata$_ZZN7Console8TConsole8DoScrollEiiiE9GetNewPosPviii
 0005:00000C00       Console.$pdata$_ZZN7Console8TConsole8WriteBufEPcjE6ReturnPv
 0005:00000C0C       Console.$pdata$_ZZN7Console8TConsole8WriteBufEPcjE8LineFeedPv
 0002:00000AF0       Console.$unwind$_ZN7Console10TFixedFont10SetBkColorEN6System7Uitypes6TColorE
 0002:00000AB4       Console.$unwind$_ZN7Console10TFixedFont6AssignEPN6System7Classes11TPersistentE
 0002:00000A78       Console.$unwind$_ZN7Console10TFixedFontC3Ev
 0002:00001010       Console.$unwind$_ZN7Console12FinalizationEv
 0002:00000EC4       Console.$unwind$_ZN7Console12TAttrManager10AllocIndexEv
 0002:00000EAC       Console.$unwind$_ZN7Console12TAttrManager10InFreeListEPv
 0002:00000EB4       Console.$unwind$_ZN7Console12TAttrManager13NextFreeIndexEPv
 0002:00000EB0       Console.$unwind$_ZN7Console12TAttrManager14FirstFreeIndexEv
 0002:00000EE0       Console.$unwind$_ZN7Console12TAttrManager5ClearEv
 0002:00000EF8       Console.$unwind$_ZN7Console12TAttrManager7GetAttrEi
 0002:00000F04       Console.$unwind$_ZN7Console12TAttrManager7SetAttrEiPNS_5TAttrE
 0002:00000EB8       Console.$unwind$_ZN7Console12TAttrManager7SetFreeEi
 0002:00000ED0       Console.$unwind$_ZN7Console12TAttrManager8AllocateEPNS_10TFixedFontE
 0002:00000EA8       Console.$unwind$_ZN7Console12TAttrManager8GetCountEv
 0002:00000EEC       Console.$unwind$_ZN7Console12TAttrManager9ReferenceEii
 0002:00000E60       Console.$unwind$_ZN7Console12TAttrManagerC3Ev
 0002:00000E9C       Console.$unwind$_ZN7Console12TAttrManagerD0Ev
 0002:00000F98       Console.$unwind$_ZN7Console13TColorConsole10SetMetricsERK14tagTEXTMETRICW
 0002:00000FE4       Console.$unwind$_ZN7Console13TColorConsole10WriteBlockEiiPcj
 0002:00000F60       Console.$unwind$_ZN7Console13TColorConsole12ResizeBufferEv
 0002:00000FF4       Console.$unwind$_ZN7Console13TColorConsole5PaintEv
 0002:00000FD0       Console.$unwind$_ZN7Console13TColorConsole8FillAttrEiij
 0002:00000F58       Console.$unwind$_ZN7Console13TColorConsole8IndexPtrEii
 0002:00000FAC       Console.$unwind$_ZN7Console13TColorConsole9WriteFillEiicj
 0002:00000F10       Console.$unwind$_ZN7Console13TColorConsoleC3EPN6System7Classes10TComponentE
 0002:00000F4C       Console.$unwind$_ZN7Console13TColorConsoleD0Ev
 0002:00001014       Console.$unwind$_ZN7Console14initializationEv
 0002:00000A6C       Console.$unwind$_ZN7Console3MaxEii
 0002:00000A68       Console.$unwind$_ZN7Console3MinEii
 0002:00000E20       Console.$unwind$_ZN7Console5TAttrC3EPNS_10TFixedFontE
 0002:00000D78       Console.$unwind$_ZN7Console7CrtOpenERN6System8TTextRecE
 0002:00000A74       Console.$unwind$_ZN7Console7FillIntEPvji
 0002:00000D74       Console.$unwind$_ZN7Console8CrtCloseERN6System8TTextRecE
 0002:00000D6C       Console.$unwind$_ZN7Console8CrtInputERN6System8TTextRecE
 0002:00000A70       Console.$unwind$_ZN7Console8ExchangeERPvS1_
 0002:00001008       Console.$unwind$_ZN7Console8RegisterEv
 0002:00000C28       Console.$unwind$_ZN7Console8TConsole10CMScrollByERNS_11TCMScrollByE
 0002:00000C00       Console.$unwind$_ZN7Console8TConsole10HideCursorEv
 0002:00000D18       Console.$unwind$_ZN7Console8TConsole10KeyPressedEv
 0002:00000BC4       Console.$unwind$_ZN7Console8TConsole10SetMetricsERK14tagTEXTMETRICW
 0002:00000D84       Console.$unwind$_ZN7Console8TConsole10SetOptionsEN6System3SetINS_14TConsoleOptionELS3_0ELS3_7EEE
 0002:00000BF8       Console.$unwind$_ZN7Console8TConsole10ShowCursorEv
 0002:00000DF0       Console.$unwind$_ZN7Console8TConsole10WMSetFocusERN6Winapi8Messages11TWMSetFocusE
 0002:00000C98       Console.$unwind$_ZN7Console8TConsole10WriteBlockEiiPcj
 0002:00000E0C       Console.$unwind$_ZN7Console8TConsole11DoCtrlBreakEv
 0002:00000B90       Console.$unwind$_ZN7Console8TConsole11FontChangedEPN6System7TObjectE
 0002:00000C58       Console.$unwind$_ZN7Console8TConsole11TrackCursorEv
 0002:00000DFC       Console.$unwind$_ZN7Console8TConsole11WMKillFocusERN6Winapi8Messages12TWMKillFocusE
 0002:00000CD8       Console.$unwind$_ZN7Console8TConsole11WriteStringEN6System13UnicodeStringE
 0002:00000B48       Console.$unwind$_ZN7Console8TConsole12CreateParamsERN3Vcl8Controls13TCreateParamsE
 0002:00000C14       Console.$unwind$_ZN7Console8TConsole12LazyScrollByEii
 0002:00000B64       Console.$unwind$_ZN7Console8TConsole12ResizeBufferEv
 0002:00000E08       Console.$unwind$_ZN7Console8TConsole12WMEraseBkgndERN6Winapi8Messages13TWMEraseBkgndE
 0002:00000E04       Console.$unwind$_ZN7Console8TConsole12WMGetDlgCodeERN6Winapi8Messages11TWMNoParamsE
 0002:00000C50       Console.$unwind$_ZN7Console8TConsole13CMTrackCursorEPv
 0002:00000C64       Console.$unwind$_ZN7Console8TConsole13SetScrollbarsEv
 0002:00000CC8       Console.$unwind$_ZN7Console8TConsole13WriteCodedBufEPcj
 0002:00000C70       Console.$unwind$_ZN7Console8TConsole14InternalClrScrEv
 0002:00000C44       Console.$unwind$_ZN7Console8TConsole15LazyTrackCursorEv
 0002:00000C84       Console.$unwind$_ZN7Console8TConsole15RecalibrateFontEv
 0002:00000BD0       Console.$unwind$_ZN7Console8TConsole18RecalcSizeAndRangeEv
 0002:00000B50       Console.$unwind$_ZN7Console8TConsole26DefaultProcessControlCodesEPcj
 0002:00000D90       Console.$unwind$_ZN7Console8TConsole5PaintEv
 0002:00000C8C       Console.$unwind$_ZN7Console8TConsole6ClrEolEv
 0002:00000C7C       Console.$unwind$_ZN7Console8TConsole6ClrScrEv
 0002:00000B40       Console.$unwind$_ZN7Console8TConsole6LoadedEv
 0002:00000DA4       Console.$unwind$_ZN7Console8TConsole6WMSizeERN6Winapi8Messages7TWMSizeE
 0002:00000DE4       Console.$unwind$_ZN7Console8TConsole7KeyDownERtN6System3SetINS2_7Classes17System_Classes__1ELS5_0ELS5_10EEE
 0002:00000D50       Console.$unwind$_ZN7Console8TConsole7ReadBufEPcj
 0002:00000D20       Console.$unwind$_ZN7Console8TConsole7ReadKeyEv
 0002:00000B70       Console.$unwind$_ZN7Console8TConsole7SetColsEi
 0002:00000B88       Console.$unwind$_ZN7Console8TConsole7SetFontEPNS_10TFixedFontE
 0002:00000BDC       Console.$unwind$_ZN7Console8TConsole7SetNameEN6System13UnicodeStringE
 0002:00000B7C       Console.$unwind$_ZN7Console8TConsole7SetRowsEi
 0002:00000C08       Console.$unwind$_ZN7Console8TConsole8CursorToEii
 0002:00000DB8       Console.$unwind$_ZN7Console8TConsole8DoScrollEiii
 0002:00000DD8       Console.$unwind$_ZN7Console8TConsole8KeyPressERw
 0002:00000C30       Console.$unwind$_ZN7Console8TConsole8ScrollToEii
 0002:00000BE8       Console.$unwind$_ZN7Console8TConsole8ShowTextEii
 0002:00000B58       Console.$unwind$_ZN7Console8TConsole8WMCreateEPv
 0002:00000CB8       Console.$unwind$_ZN7Console8TConsole8WriteBufEPcj
 0002:00000D7C       Console.$unwind$_ZN7Console8TConsole9AssignCrtERN6System8TextfileE
 0002:00000E10       Console.$unwind$_ZN7Console8TConsole9MouseDownEN6System7Uitypes12TMouseButtonENS1_3SetINS1_7Classes17System_Classes__1ELS6_0ELS6_10EEEii
 0002:00000BE4       Console.$unwind$_ZN7Console8TConsole9ScreenPtrEii
 0002:00000DC8       Console.$unwind$_ZN7Console8TConsole9WMHScrollERN6Winapi8Messages9TWMScrollE
 0002:00000DD0       Console.$unwind$_ZN7Console8TConsole9WMVScrollERN6Winapi8Messages9TWMScrollE
 0002:00000CD0       Console.$unwind$_ZN7Console8TConsole9WriteCharEc
 0002:00000D08       Console.$unwind$_ZN7Console8TConsole9WriteFillEiicj
 0002:00000AF8       Console.$unwind$_ZN7Console8TConsoleC3EPN6System7Classes10TComponentE
 0002:00000B34       Console.$unwind$_ZN7Console8TConsoleD0Ev
 0002:00000D60       Console.$unwind$_ZN7Console9CrtOutputERN6System8TTextRecE
 0002:00000F90       Console.$unwind$_ZZN7Console13TColorConsole10SetMetricsERK14tagTEXTMETRICWE5CheckPvii
 0002:00000FBC       Console.$unwind$_ZZN7Console13TColorConsole8FillAttrEiijE11ReplaceAttrPviPij
 0002:00000DB0       Console.$unwind$_ZZN7Console8TConsole8DoScrollEiiiE9GetNewPosPviii
 0002:00000CA0       Console.$unwind$_ZZN7Console8TConsole8WriteBufEPcjE6ReturnPv
 0002:00000CA8       Console.$unwind$_ZZN7Console8TConsole8WriteBufEPcjE8LineFeedPv
 0003:000000E8       Console..7
 0001:0000D0F0       Console..EInvalidFont
 0001:0000E488       Console..TAttr
 0001:0000E658       Console..TAttrManager
 0001:0000EA60       Console..TColorConsole
 0001:0000D678       Console..TConsole
 0001:0000D288       Console..TFixedFont
 0001:00011EF0       Console.Check
 0001:00012780       Console.Console
 0001:00010C80       Console.CrtClose
 0001:00010C40       Console.CrtInput
 0001:00010C90       Console.CrtOpen
 0001:00010C00       Console.CrtOutput
 0001:0000EF60       Console.Exchange
 0001:0000EF70       Console.FillInt
 0001:00012770       Console.Finalization
 0001:000112A0       Console.GetNewPos
 0001:00010260       Console.LineFeed
 0001:0000EF50       Console.Max
 0001:0000EF40       Console.Min
 0002:00000A34       Console.ReadActive
 0001:000126F0       Console.Register
 0001:000120F0       Console.ReplaceAttr
 0001:00010230       Console.Return
 0002:00000A35       Console.ScrollKeys
 0001:00011620       Console.TAttr.Create
 0001:00011990       Console.TAttrManager.Allocate
 0001:00011950       Console.TAttrManager.AllocIndex
 0001:00011AB0       Console.TAttrManager.Clear
 0001:000117A0       Console.TAttrManager.Create
 0001:00011850       Console.TAttrManager.Destroy
 0001:000118D0       Console.TAttrManager.FirstFreeIndex
 0001:00011B80       Console.TAttrManager.GetAttr
 0001:000118A0       Console.TAttrManager.GetCount
 0001:000118B0       Console.TAttrManager.InFreeList
 0001:000118E0       Console.TAttrManager.NextFreeIndex
 0001:00011B40       Console.TAttrManager.Reference
 0001:00011BB0       Console.TAttrManager.SetAttr
 0001:00011900       Console.TAttrManager.SetFree
 0001:00011C20       Console.TColorConsole.Create
 0001:00011CE0       Console.TColorConsole.Destroy
 0001:00012160       Console.TColorConsole.FillAttr
 0001:00011D40       Console.TColorConsole.IndexPtr
 0001:000122C0       Console.TColorConsole.Paint
 0001:00011D70       Console.TColorConsole.ResizeBuffer
 0001:00011F10       Console.TColorConsole.SetMetrics
 0001:00012270       Console.TColorConsole.WriteBlock
 0001:000120A0       Console.TColorConsole.WriteFill
 0001:00010CE0       Console.TConsole.AssignCrt
 0001:000101A0       Console.TConsole.ClrEol
 0001:00010110       Console.TConsole.ClrScr
 0001:0000FBE0       Console.TConsole.CMScrollBy
 0001:0000FF40       Console.TConsole.CMTrackCursor
 0001:0000F130       Console.TConsole.Create
 0001:0000F3D0       Console.TConsole.CreateParams
 0001:0000FA30       Console.TConsole.CursorTo
 0001:0000F3F0       Console.TConsole.DefaultProcessControlCodes
 0001:0000F330       Console.TConsole.Destroy
 0001:000115C0       Console.TConsole.DoCtrlBreak
 0001:00011310       Console.TConsole.DoScroll
 0001:0000F530       Console.TConsole.FontChanged
 0001:0000FA20       Console.TConsole.HideCursor
 0001:00010090       Console.TConsole.InternalClrScr
 0001:00011450       Console.TConsole.KeyDown
 0001:000113E0       Console.TConsole.KeyPress
 0001:00010850       Console.TConsole.KeyPressed
 0001:0000FAB0       Console.TConsole.LazyScrollBy
 0001:0000FEC0       Console.TConsole.LazyTrackCursor
 0001:0000F3B0       Console.TConsole.Loaded
 0001:000115D0       Console.TConsole.MouseDown
 0001:00010FB0       Console.TConsole.Paint
 0001:00010AE0       Console.TConsole.ReadBuf
 0001:00010890       Console.TConsole.ReadKey
 0001:0000F7D0       Console.TConsole.RecalcSizeAndRange
 0001:00010130       Console.TConsole.RecalibrateFont
 0001:0000F430       Console.TConsole.ResizeBuffer
 0001:0000F8C0       Console.TConsole.ScreenPtr
 0001:0000FC10       Console.TConsole.ScrollTo
 0001:0000F490       Console.TConsole.SetCols
 0001:0000F510       Console.TConsole.SetFont
 0001:0000F770       Console.TConsole.SetMetrics
 0001:0000F890       Console.TConsole.SetName
 0001:00010D40       Console.TConsole.SetOptions
 0001:0000F4D0       Console.TConsole.SetRows
 0001:0000FFC0       Console.TConsole.SetScrollbars
 0001:0000F9A0       Console.TConsole.ShowCursor
 0001:0000F8F0       Console.TConsole.ShowText
 0001:0000FF50       Console.TConsole.TrackCursor
 0001:0000F400       Console.TConsole.WMCreate
 0001:000115B0       Console.TConsole.WMEraseBkgnd
 0001:000115A0       Console.TConsole.WMGetDlgCode
 0001:000113A0       Console.TConsole.WMHScroll
 0001:00011560       Console.TConsole.WMKillFocus
 0001:00011510       Console.TConsole.WMSetFocus
 0001:00011220       Console.TConsole.WMSize
 0001:000113C0       Console.TConsole.WMVScroll
 0001:00010200       Console.TConsole.WriteBlock
 0001:00010360       Console.TConsole.WriteBuf
 0001:000106E0       Console.TConsole.WriteChar
 0001:000106A0       Console.TConsole.WriteCodedBuf
 0001:00010780       Console.TConsole.WriteFill
 0001:00010700       Console.TConsole.WriteString
 0001:0000F090       Console.TFixedFont.Assign
 0001:0000EFA0       Console.TFixedFont.Create
 0001:0000F110       Console.TFixedFont.SetBkColor
 0005:000010EC       Console2.$pdata$_ZN8Console211TFixedFont_10SetBkColorEN6System7Uitypes6TColorE
 0005:000010D4       Console2.$pdata$_ZN8Console211TFixedFont_6AssignEPN6System7Classes11TPersistentE
 0005:000010BC       Console2.$pdata$_ZN8Console211TFixedFont_C3Ev
 0005:0000156C       Console2.$pdata$_ZN8Console212FinalizationEv
 0005:0000147C       Console2.$pdata$_ZN8Console212TAttrManager10AllocIndexEv
 0005:0000144C       Console2.$pdata$_ZN8Console212TAttrManager10InFreeListEPv
 0005:00001464       Console2.$pdata$_ZN8Console212TAttrManager13NextFreeIndexEPv
 0005:00001458       Console2.$pdata$_ZN8Console212TAttrManager14FirstFreeIndexEv
 0005:00001494       Console2.$pdata$_ZN8Console212TAttrManager5ClearEv
 0005:000014AC       Console2.$pdata$_ZN8Console212TAttrManager7GetAttrEi
 0005:000014B8       Console2.$pdata$_ZN8Console212TAttrManager7SetAttrEiPNS_5TAttrE
 0005:00001470       Console2.$pdata$_ZN8Console212TAttrManager7SetFreeEi
 0005:00001488       Console2.$pdata$_ZN8Console212TAttrManager8AllocateEPNS_11TFixedFont_E
 0005:00001440       Console2.$pdata$_ZN8Console212TAttrManager8GetCountEv
 0005:000014A0       Console2.$pdata$_ZN8Console212TAttrManager9ReferenceEii
 0005:0000141C       Console2.$pdata$_ZN8Console212TAttrManagerC3Ev
 0005:00001434       Console2.$pdata$_ZN8Console212TAttrManagerD0Ev
 0005:00001578       Console2.$pdata$_ZN8Console214initializationEv
 0005:00001518       Console2.$pdata$_ZN8Console214TColorConsole210SetMetricsERK14tagTEXTMETRICW
 0005:00001548       Console2.$pdata$_ZN8Console214TColorConsole210WriteBlockEiiPcj
 0005:000014F4       Console2.$pdata$_ZN8Console214TColorConsole212ResizeBufferEv
 0005:00001554       Console2.$pdata$_ZN8Console214TColorConsole25PaintEv
 0005:0000153C       Console2.$pdata$_ZN8Console214TColorConsole28FillAttrEiij
 0005:000014E8       Console2.$pdata$_ZN8Console214TColorConsole28IndexPtrEii
 0005:00001524       Console2.$pdata$_ZN8Console214TColorConsole29WriteFillEiicj
 0005:000014C4       Console2.$pdata$_ZN8Console214TColorConsole2C3EPN6System7Classes10TComponentE
 0005:000014DC       Console2.$pdata$_ZN8Console214TColorConsole2D0Ev
 0005:00001098       Console2.$pdata$_ZN8Console23MaxEii
 0005:0000108C       Console2.$pdata$_ZN8Console23MinEii
 0005:00001404       Console2.$pdata$_ZN8Console25TAttrC3EPNS_11TFixedFont_E
 0005:00001338       Console2.$pdata$_ZN8Console27CrtOpenERN6System8TTextRecE
 0005:000010B0       Console2.$pdata$_ZN8Console27FillIntEPvji
 0005:0000132C       Console2.$pdata$_ZN8Console28CrtCloseERN6System8TTextRecE
 0005:00001320       Console2.$pdata$_ZN8Console28CrtInputERN6System8TTextRecE
 0005:000010A4       Console2.$pdata$_ZN8Console28ExchangeERPvS1_
 0005:00001560       Console2.$pdata$_ZN8Console28RegisterEv
 0005:00001314       Console2.$pdata$_ZN8Console29CrtOutputERN6System8TTextRecE
 0005:00001200       Console2.$pdata$_ZN8Console29TConsole210CMScrollByERNS_11TCMScrollByE
 0005:000011DC       Console2.$pdata$_ZN8Console29TConsole210HideCursorEv
 0005:000012E4       Console2.$pdata$_ZN8Console29TConsole210KeyPressedEv
 0005:00001194       Console2.$pdata$_ZN8Console29TConsole210SetMetricsERK14tagTEXTMETRICW
 0005:00001350       Console2.$pdata$_ZN8Console29TConsole210SetOptionsEN6System3SetINS_15TConsole2OptionELS3_0ELS3_7EEE
 0005:000011D0       Console2.$pdata$_ZN8Console29TConsole210ShowCursorEv
 0005:000013BC       Console2.$pdata$_ZN8Console29TConsole210WMSetFocusERN6Winapi8Messages11TWMSetFocusE
 0005:00001278       Console2.$pdata$_ZN8Console29TConsole210WriteBlockEiiPcj
 0005:000013EC       Console2.$pdata$_ZN8Console29TConsole211DoCtrlBreakEv
 0005:0000117C       Console2.$pdata$_ZN8Console29TConsole211FontChangedEPN6System7TObjectE
 0005:00001230       Console2.$pdata$_ZN8Console29TConsole211TrackCursorEv
 0005:000013C8       Console2.$pdata$_ZN8Console29TConsole211WMKillFocusERN6Winapi8Messages12TWMKillFocusE
 0005:000012C0       Console2.$pdata$_ZN8Console29TConsole211WriteStringEN6System13UnicodeStringE
 0005:00001128       Console2.$pdata$_ZN8Console29TConsole212CreateParamsERN3Vcl8Controls13TCreateParamsE
 0005:000011F4       Console2.$pdata$_ZN8Console29TConsole212LazyScrollByEii
 0005:0000114C       Console2.$pdata$_ZN8Console29TConsole212ResizeBufferEv
 0005:000013E0       Console2.$pdata$_ZN8Console29TConsole212WMEraseBkgndERN6Winapi8Messages13TWMEraseBkgndE
 0005:000013D4       Console2.$pdata$_ZN8Console29TConsole212WMGetDlgCodeERN6Winapi8Messages11TWMNoParamsE
 0005:00001224       Console2.$pdata$_ZN8Console29TConsole213CMTrackCursorEPv
 0005:0000123C       Console2.$pdata$_ZN8Console29TConsole213SetScrollbarsEv
 0005:000012A8       Console2.$pdata$_ZN8Console29TConsole213WriteCodedBufEPcj
 0005:00001248       Console2.$pdata$_ZN8Console29TConsole214InternalClrScrEv
 0005:00001218       Console2.$pdata$_ZN8Console29TConsole215LazyTrackCursorEv
 0005:00001260       Console2.$pdata$_ZN8Console29TConsole215RecalibrateFontEv
 0005:000011A0       Console2.$pdata$_ZN8Console29TConsole218RecalcSizeAndRangeEv
 0005:00001134       Console2.$pdata$_ZN8Console29TConsole226DefaultProcessControlCodesEPcj
 0005:0000135C       Console2.$pdata$_ZN8Console29TConsole25PaintEv
 0005:0000126C       Console2.$pdata$_ZN8Console29TConsole26ClrEolEv
 0005:00001254       Console2.$pdata$_ZN8Console29TConsole26ClrScrEv
 0005:0000111C       Console2.$pdata$_ZN8Console29TConsole26LoadedEv
 0005:00001368       Console2.$pdata$_ZN8Console29TConsole26WMSizeERN6Winapi8Messages7TWMSizeE
 0005:000013B0       Console2.$pdata$_ZN8Console29TConsole27KeyDownERtN6System3SetINS2_7Classes17System_Classes__1ELS5_0ELS5_10EEE
 0005:00001308       Console2.$pdata$_ZN8Console29TConsole27ReadBufEPcj
 0005:000012F0       Console2.$pdata$_ZN8Console29TConsole27ReadKeyEv
 0005:00001158       Console2.$pdata$_ZN8Console29TConsole27SetColsEi
 0005:00001170       Console2.$pdata$_ZN8Console29TConsole27SetFontEPNS_11TFixedFont_E
 0005:000011AC       Console2.$pdata$_ZN8Console29TConsole27SetNameEN6System13UnicodeStringE
 0005:00001164       Console2.$pdata$_ZN8Console29TConsole27SetRowsEi
 0005:000011E8       Console2.$pdata$_ZN8Console29TConsole28CursorToEii
 0005:00001380       Console2.$pdata$_ZN8Console29TConsole28DoScrollEiii
 0005:000013A4       Console2.$pdata$_ZN8Console29TConsole28KeyPressERw
 0005:0000120C       Console2.$pdata$_ZN8Console29TConsole28ScrollToEii
 0005:000011C4       Console2.$pdata$_ZN8Console29TConsole28ShowTextEii
 0005:00001140       Console2.$pdata$_ZN8Console29TConsole28WMCreateEPv
 0005:0000129C       Console2.$pdata$_ZN8Console29TConsole28WriteBufEPcj
 0005:00001344       Console2.$pdata$_ZN8Console29TConsole29AssignCrtERN6System8TextfileE
 0005:000013F8       Console2.$pdata$_ZN8Console29TConsole29MouseDownEN6System7Uitypes12TMouseButtonENS1_3SetINS1_7Classes17System_Classes__1ELS6_0ELS6_10EEEii
 0005:000011B8       Console2.$pdata$_ZN8Console29TConsole29ScreenPtrEii
 0005:0000138C       Console2.$pdata$_ZN8Console29TConsole29WMHScrollERN6Winapi8Messages9TWMScrollE
 0005:00001398       Console2.$pdata$_ZN8Console29TConsole29WMVScrollERN6Winapi8Messages9TWMScrollE
 0005:000012B4       Console2.$pdata$_ZN8Console29TConsole29WriteCharEc
 0005:000012D8       Console2.$pdata$_ZN8Console29TConsole29WriteFillEiicj
 0005:000010F8       Console2.$pdata$_ZN8Console29TConsole2C3EPN6System7Classes10TComponentE
 0005:00001110       Console2.$pdata$_ZN8Console29TConsole2D0Ev
 0005:0000150C       Console2.$pdata$_ZZN8Console214TColorConsole210SetMetricsERK14tagTEXTMETRICWE5CheckPvii
 0005:00001530       Console2.$pdata$_ZZN8Console214TColorConsole28FillAttrEiijE11ReplaceAttrPviPij
 0005:00001374       Console2.$pdata$_ZZN8Console29TConsole28DoScrollEiiiE9GetNewPosPviii
 0005:00001284       Console2.$pdata$_ZZN8Console29TConsole28WriteBufEPcjE6ReturnPv
 0005:00001290       Console2.$pdata$_ZZN8Console29TConsole28WriteBufEPcjE8LineFeedPv
 0002:000012B4       Console2.$unwind$_ZN8Console211TFixedFont_10SetBkColorEN6System7Uitypes6TColorE
 0002:00001278       Console2.$unwind$_ZN8Console211TFixedFont_6AssignEPN6System7Classes11TPersistentE
 0002:0000123C       Console2.$unwind$_ZN8Console211TFixedFont_C3Ev
 0002:000017D4       Console2.$unwind$_ZN8Console212FinalizationEv
 0002:00001688       Console2.$unwind$_ZN8Console212TAttrManager10AllocIndexEv
 0002:00001670       Console2.$unwind$_ZN8Console212TAttrManager10InFreeListEPv
 0002:00001678       Console2.$unwind$_ZN8Console212TAttrManager13NextFreeIndexEPv
 0002:00001674       Console2.$unwind$_ZN8Console212TAttrManager14FirstFreeIndexEv
 0002:000016A4       Console2.$unwind$_ZN8Console212TAttrManager5ClearEv
 0002:000016BC       Console2.$unwind$_ZN8Console212TAttrManager7GetAttrEi
 0002:000016C8       Console2.$unwind$_ZN8Console212TAttrManager7SetAttrEiPNS_5TAttrE
 0002:0000167C       Console2.$unwind$_ZN8Console212TAttrManager7SetFreeEi
 0002:00001694       Console2.$unwind$_ZN8Console212TAttrManager8AllocateEPNS_11TFixedFont_E
 0002:0000166C       Console2.$unwind$_ZN8Console212TAttrManager8GetCountEv
 0002:000016B0       Console2.$unwind$_ZN8Console212TAttrManager9ReferenceEii
 0002:00001624       Console2.$unwind$_ZN8Console212TAttrManagerC3Ev
 0002:00001660       Console2.$unwind$_ZN8Console212TAttrManagerD0Ev
 0002:000017D8       Console2.$unwind$_ZN8Console214initializationEv
 0002:0000175C       Console2.$unwind$_ZN8Console214TColorConsole210SetMetricsERK14tagTEXTMETRICW
 0002:000017A8       Console2.$unwind$_ZN8Console214TColorConsole210WriteBlockEiiPcj
 0002:00001724       Console2.$unwind$_ZN8Console214TColorConsole212ResizeBufferEv
 0002:000017B8       Console2.$unwind$_ZN8Console214TColorConsole25PaintEv
 0002:00001794       Console2.$unwind$_ZN8Console214TColorConsole28FillAttrEiij
 0002:0000171C       Console2.$unwind$_ZN8Console214TColorConsole28IndexPtrEii
 0002:00001770       Console2.$unwind$_ZN8Console214TColorConsole29WriteFillEiicj
 0002:000016D4       Console2.$unwind$_ZN8Console214TColorConsole2C3EPN6System7Classes10TComponentE
 0002:00001710       Console2.$unwind$_ZN8Console214TColorConsole2D0Ev
 0002:00001230       Console2.$unwind$_ZN8Console23MaxEii
 0002:0000122C       Console2.$unwind$_ZN8Console23MinEii
 0002:000015E4       Console2.$unwind$_ZN8Console25TAttrC3EPNS_11TFixedFont_E
 0002:0000153C       Console2.$unwind$_ZN8Console27CrtOpenERN6System8TTextRecE
 0002:00001238       Console2.$unwind$_ZN8Console27FillIntEPvji
 0002:00001538       Console2.$unwind$_ZN8Console28CrtCloseERN6System8TTextRecE
 0002:00001530       Console2.$unwind$_ZN8Console28CrtInputERN6System8TTextRecE
 0002:00001234       Console2.$unwind$_ZN8Console28ExchangeERPvS1_
 0002:000017CC       Console2.$unwind$_ZN8Console28RegisterEv
 0002:00001524       Console2.$unwind$_ZN8Console29CrtOutputERN6System8TTextRecE
 0002:000013EC       Console2.$unwind$_ZN8Console29TConsole210CMScrollByERNS_11TCMScrollByE
 0002:000013C4       Console2.$unwind$_ZN8Console29TConsole210HideCursorEv
 0002:000014DC       Console2.$unwind$_ZN8Console29TConsole210KeyPressedEv
 0002:00001388       Console2.$unwind$_ZN8Console29TConsole210SetMetricsERK14tagTEXTMETRICW
 0002:00001548       Console2.$unwind$_ZN8Console29TConsole210SetOptionsEN6System3SetINS_15TConsole2OptionELS3_0ELS3_7EEE
 0002:000013BC       Console2.$unwind$_ZN8Console29TConsole210ShowCursorEv
 0002:000015B4       Console2.$unwind$_ZN8Console29TConsole210WMSetFocusERN6Winapi8Messages11TWMSetFocusE
 0002:0000145C       Console2.$unwind$_ZN8Console29TConsole210WriteBlockEiiPcj
 0002:000015D0       Console2.$unwind$_ZN8Console29TConsole211DoCtrlBreakEv
 0002:00001354       Console2.$unwind$_ZN8Console29TConsole211FontChangedEPN6System7TObjectE
 0002:0000141C       Console2.$unwind$_ZN8Console29TConsole211TrackCursorEv
 0002:000015C0       Console2.$unwind$_ZN8Console29TConsole211WMKillFocusERN6Winapi8Messages12TWMKillFocusE
 0002:0000149C       Console2.$unwind$_ZN8Console29TConsole211WriteStringEN6System13UnicodeStringE
 0002:0000130C       Console2.$unwind$_ZN8Console29TConsole212CreateParamsERN3Vcl8Controls13TCreateParamsE
 0002:000013D8       Console2.$unwind$_ZN8Console29TConsole212LazyScrollByEii
 0002:00001328       Console2.$unwind$_ZN8Console29TConsole212ResizeBufferEv
 0002:000015CC       Console2.$unwind$_ZN8Console29TConsole212WMEraseBkgndERN6Winapi8Messages13TWMEraseBkgndE
 0002:000015C8       Console2.$unwind$_ZN8Console29TConsole212WMGetDlgCodeERN6Winapi8Messages11TWMNoParamsE
 0002:00001414       Console2.$unwind$_ZN8Console29TConsole213CMTrackCursorEPv
 0002:00001428       Console2.$unwind$_ZN8Console29TConsole213SetScrollbarsEv
 0002:0000148C       Console2.$unwind$_ZN8Console29TConsole213WriteCodedBufEPcj
 0002:00001434       Console2.$unwind$_ZN8Console29TConsole214InternalClrScrEv
 0002:00001408       Console2.$unwind$_ZN8Console29TConsole215LazyTrackCursorEv
 0002:00001448       Console2.$unwind$_ZN8Console29TConsole215RecalibrateFontEv
 0002:00001394       Console2.$unwind$_ZN8Console29TConsole218RecalcSizeAndRangeEv
 0002:00001314       Console2.$unwind$_ZN8Console29TConsole226DefaultProcessControlCodesEPcj
 0002:00001554       Console2.$unwind$_ZN8Console29TConsole25PaintEv
 0002:00001450       Console2.$unwind$_ZN8Console29TConsole26ClrEolEv
 0002:00001440       Console2.$unwind$_ZN8Console29TConsole26ClrScrEv
 0002:00001304       Console2.$unwind$_ZN8Console29TConsole26LoadedEv
 0002:00001568       Console2.$unwind$_ZN8Console29TConsole26WMSizeERN6Winapi8Messages7TWMSizeE
 0002:000015A8       Console2.$unwind$_ZN8Console29TConsole27KeyDownERtN6System3SetINS2_7Classes17System_Classes__1ELS5_0ELS5_10EEE
 0002:00001514       Console2.$unwind$_ZN8Console29TConsole27ReadBufEPcj
 0002:000014E4       Console2.$unwind$_ZN8Console29TConsole27ReadKeyEv
 0002:00001334       Console2.$unwind$_ZN8Console29TConsole27SetColsEi
 0002:0000134C       Console2.$unwind$_ZN8Console29TConsole27SetFontEPNS_11TFixedFont_E
 0002:000013A0       Console2.$unwind$_ZN8Console29TConsole27SetNameEN6System13UnicodeStringE
 0002:00001340       Console2.$unwind$_ZN8Console29TConsole27SetRowsEi
 0002:000013CC       Console2.$unwind$_ZN8Console29TConsole28CursorToEii
 0002:0000157C       Console2.$unwind$_ZN8Console29TConsole28DoScrollEiii
 0002:0000159C       Console2.$unwind$_ZN8Console29TConsole28KeyPressERw
 0002:000013F4       Console2.$unwind$_ZN8Console29TConsole28ScrollToEii
 0002:000013AC       Console2.$unwind$_ZN8Console29TConsole28ShowTextEii
 0002:0000131C       Console2.$unwind$_ZN8Console29TConsole28WMCreateEPv
 0002:0000147C       Console2.$unwind$_ZN8Console29TConsole28WriteBufEPcj
 0002:00001540       Console2.$unwind$_ZN8Console29TConsole29AssignCrtERN6System8TextfileE
 0002:000015D4       Console2.$unwind$_ZN8Console29TConsole29MouseDownEN6System7Uitypes12TMouseButtonENS1_3SetINS1_7Classes17System_Classes__1ELS6_0ELS6_10EEEii
 0002:000013A8       Console2.$unwind$_ZN8Console29TConsole29ScreenPtrEii
 0002:0000158C       Console2.$unwind$_ZN8Console29TConsole29WMHScrollERN6Winapi8Messages9TWMScrollE
 0002:00001594       Console2.$unwind$_ZN8Console29TConsole29WMVScrollERN6Winapi8Messages9TWMScrollE
 0002:00001494       Console2.$unwind$_ZN8Console29TConsole29WriteCharEc
 0002:000014CC       Console2.$unwind$_ZN8Console29TConsole29WriteFillEiicj
 0002:000012BC       Console2.$unwind$_ZN8Console29TConsole2C3EPN6System7Classes10TComponentE
 0002:000012F8       Console2.$unwind$_ZN8Console29TConsole2D0Ev
 0002:00001754       Console2.$unwind$_ZZN8Console214TColorConsole210SetMetricsERK14tagTEXTMETRICWE5CheckPvii
 0002:00001780       Console2.$unwind$_ZZN8Console214TColorConsole28FillAttrEiijE11ReplaceAttrPviPij
 0002:00001574       Console2.$unwind$_ZZN8Console29TConsole28DoScrollEiiiE9GetNewPosPviii
 0002:00001464       Console2.$unwind$_ZZN8Console29TConsole28WriteBufEPcjE6ReturnPv
 0002:0000146C       Console2.$unwind$_ZZN8Console29TConsole28WriteBufEPcjE8LineFeedPv
 0003:000000F4       Console2..7
 0001:000149C0       Console2..EInvalidFont
 0001:00015D68       Console2..TAttr
 0001:00015F38       Console2..TAttrManager
 0001:00016340       Console2..TColorConsole2
 0001:00014F58       Console2..TConsole2
 0001:00014B60       Console2..TFixedFont_
 0001:00019780       Console2.Check
 0001:0001A010       Console2.Console2
 0001:00018510       Console2.CrtClose
 0001:000184D0       Console2.CrtInput
 0001:00018520       Console2.CrtOpen
 0001:00018490       Console2.CrtOutput
 0001:00016840       Console2.Exchange
 0001:00016850       Console2.FillInt
 0001:0001A000       Console2.Finalization
 0001:00018B30       Console2.GetNewPos
 0001:00017AF0       Console2.LineFeed
 0001:00016830       Console2.Max
 0001:00016820       Console2.Min
 0002:000011F8       Console2.ReadActive
 0001:00019F80       Console2.Register
 0001:00019980       Console2.ReplaceAttr
 0001:00017AC0       Console2.Return
 0002:000011F9       Console2.ScrollKeys
 0001:00018EB0       Console2.TAttr.Create
 0001:00019220       Console2.TAttrManager.Allocate
 0001:000191E0       Console2.TAttrManager.AllocIndex
 0001:00019340       Console2.TAttrManager.Clear
 0001:00019030       Console2.TAttrManager.Create
 0001:000190E0       Console2.TAttrManager.Destroy
 0001:00019160       Console2.TAttrManager.FirstFreeIndex
 0001:00019410       Console2.TAttrManager.GetAttr
 0001:00019130       Console2.TAttrManager.GetCount
 0001:00019140       Console2.TAttrManager.InFreeList
 0001:00019170       Console2.TAttrManager.NextFreeIndex
 0001:000193D0       Console2.TAttrManager.Reference
 0001:00019440       Console2.TAttrManager.SetAttr
 0001:00019190       Console2.TAttrManager.SetFree
 0001:000194B0       Console2.TColorConsole2.Create
 0001:00019570       Console2.TColorConsole2.Destroy
 0001:000199F0       Console2.TColorConsole2.FillAttr
 0001:000195D0       Console2.TColorConsole2.IndexPtr
 0001:00019B50       Console2.TColorConsole2.Paint
 0001:00019600       Console2.TColorConsole2.ResizeBuffer
 0001:000197A0       Console2.TColorConsole2.SetMetrics
 0001:00019B00       Console2.TColorConsole2.WriteBlock
 0001:00019930       Console2.TColorConsole2.WriteFill
 0001:00018570       Console2.TConsole2.AssignCrt
 0001:00017A30       Console2.TConsole2.ClrEol
 0001:000179A0       Console2.TConsole2.ClrScr
 0001:000174C0       Console2.TConsole2.CMScrollBy
 0001:00017820       Console2.TConsole2.CMTrackCursor
 0001:00016A10       Console2.TConsole2.Create
 0001:00016CB0       Console2.TConsole2.CreateParams
 0001:00017310       Console2.TConsole2.CursorTo
 0001:00016CD0       Console2.TConsole2.DefaultProcessControlCodes
 0001:00016C10       Console2.TConsole2.Destroy
 0001:00018E50       Console2.TConsole2.DoCtrlBreak
 0001:00018BA0       Console2.TConsole2.DoScroll
 0001:00016E10       Console2.TConsole2.FontChanged
 0001:00017300       Console2.TConsole2.HideCursor
 0001:00017920       Console2.TConsole2.InternalClrScr
 0001:00018CE0       Console2.TConsole2.KeyDown
 0001:00018C70       Console2.TConsole2.KeyPress
 0001:000180E0       Console2.TConsole2.KeyPressed
 0001:00017390       Console2.TConsole2.LazyScrollBy
 0001:000177A0       Console2.TConsole2.LazyTrackCursor
 0001:00016C90       Console2.TConsole2.Loaded
 0001:00018E60       Console2.TConsole2.MouseDown
 0001:00018840       Console2.TConsole2.Paint
 0001:00018370       Console2.TConsole2.ReadBuf
 0001:00018120       Console2.TConsole2.ReadKey
 0001:000170B0       Console2.TConsole2.RecalcSizeAndRange
 0001:000179C0       Console2.TConsole2.RecalibrateFont
 0001:00016D10       Console2.TConsole2.ResizeBuffer
 0001:000171A0       Console2.TConsole2.ScreenPtr
 0001:000174F0       Console2.TConsole2.ScrollTo
 0001:00016D70       Console2.TConsole2.SetCols
 0001:00016DF0       Console2.TConsole2.SetFont
 0001:00017050       Console2.TConsole2.SetMetrics
 0001:00017170       Console2.TConsole2.SetName
 0001:000185D0       Console2.TConsole2.SetOptions
 0001:00016DB0       Console2.TConsole2.SetRows
 0001:000178A0       Console2.TConsole2.SetScrollbars
 0001:00017280       Console2.TConsole2.ShowCursor
 0001:000171D0       Console2.TConsole2.ShowText
 0001:00017830       Console2.TConsole2.TrackCursor
 0001:00016CE0       Console2.TConsole2.WMCreate
 0001:00018E40       Console2.TConsole2.WMEraseBkgnd
 0001:00018E30       Console2.TConsole2.WMGetDlgCode
 0001:00018C30       Console2.TConsole2.WMHScroll
 0001:00018DF0       Console2.TConsole2.WMKillFocus
 0001:00018DA0       Console2.TConsole2.WMSetFocus
 0001:00018AB0       Console2.TConsole2.WMSize
 0001:00018C50       Console2.TConsole2.WMVScroll
 0001:00017A90       Console2.TConsole2.WriteBlock
 0001:00017BF0       Console2.TConsole2.WriteBuf
 0001:00017F70       Console2.TConsole2.WriteChar
 0001:00017F30       Console2.TConsole2.WriteCodedBuf
 0001:00018010       Console2.TConsole2.WriteFill
 0001:00017F90       Console2.TConsole2.WriteString
 0001:00016970       Console2.TFixedFont_.Assign
 0001:00016880       Console2.TFixedFont_.Create
 0001:000169F0       Console2.TFixedFont_.SetBkColor
 0005:000009F0       CPDReg.$pdata$_ZN6Cpdreg12FinalizationEv
 0005:000009FC       CPDReg.$pdata$_ZN6Cpdreg14initializationEv
 0005:000009E4       CPDReg.$pdata$_ZN6Cpdreg8RegisterEv
 0002:00000A2C       CPDReg.$unwind$_ZN6Cpdreg12FinalizationEv
 0002:00000A30       CPDReg.$unwind$_ZN6Cpdreg14initializationEv
 0002:00000A24       CPDReg.$unwind$_ZN6Cpdreg8RegisterEv
 0003:000000E4       CPDReg..1
 0001:0000D0E0       CPDReg.CPDReg
 0001:0000D0D0       CPDReg.Finalization
 0001:0000D080       CPDReg.Register
 0005:00000798       CPDrv.$pdata$_ZN5Cpdrv10BaudRateOfENS_9TBaudRateE
 0005:000007A4       CPDrv.$pdata$_ZN5Cpdrv10DelayForRXENS_9TBaudRateEj
 0005:000009CC       CPDrv.$pdata$_ZN5Cpdrv12FinalizationEv
 0005:0000078C       CPDrv.$pdata$_ZN5Cpdrv13GetWinVersionEv
 0005:00000780       CPDrv.$pdata$_ZN5Cpdrv14GetWinPlatformEv
 0005:000009D8       CPDrv.$pdata$_ZN5Cpdrv14initializationEv
 0005:000008C4       CPDrv.$pdata$_ZN5Cpdrv15TCommPortDriver10DisconnectEv
 0005:00000930       CPDrv.$pdata$_ZN5Cpdrv15TCommPortDriver10SendDataExEPcjj
 0005:00000960       CPDrv.$pdata$_ZN5Cpdrv15TCommPortDriver10SendStringEN6System11AnsiStringTILt0EEE
 0005:00000978       CPDrv.$pdata$_ZN5Cpdrv15TCommPortDriver11SendZStringEPc
 0005:00000810       CPDrv.$pdata$_ZN5Cpdrv15TCommPortDriver11SetBaudRateENS_9TBaudRateE
 0005:00000828       CPDrv.$pdata$_ZN5Cpdrv15TCommPortDriver11SetDataBitsENS_9TDataBitsE
 0005:000007F8       CPDrv.$pdata$_ZN5Cpdrv15TCommPortDriver11SetPortNameEN6System13UnicodeStringE
 0005:00000834       CPDrv.$pdata$_ZN5Cpdrv15TCommPortDriver11SetStopBitsENS_9TStopBitsE
 0005:0000090C       CPDrv.$pdata$_ZN5Cpdrv15TCommPortDriver12FlushBuffersEbb
 0005:00000924       CPDrv.$pdata$_ZN5Cpdrv15TCommPortDriver12OutFreeSpaceEv
 0005:000008F4       CPDrv.$pdata$_ZN5Cpdrv15TCommPortDriver12PausePollingEv
 0005:00000864       CPDrv.$pdata$_ZN5Cpdrv15TCommPortDriver12SetInBufSizeEj
 0005:000009C0       CPDrv.$pdata$_ZN5Cpdrv15TCommPortDriver12TimerWndProcERN6Winapi8Messages8TMessageE
 0005:000008DC       CPDrv.$pdata$_ZN5Cpdrv15TCommPortDriver13GetLineStatusEv
 0005:00000870       CPDrv.$pdata$_ZN5Cpdrv15TCommPortDriver13SetOutBufSizeEj
 0005:0000087C       CPDrv.$pdata$_ZN5Cpdrv15TCommPortDriver13SetPacketSizeEs
 0005:00000900       CPDrv.$pdata$_ZN5Cpdrv15TCommPortDriver15ContinuePollingEv
 0005:00000894       CPDrv.$pdata$_ZN5Cpdrv15TCommPortDriver15SetPollingDelayEt
 0005:000008A0       CPDrv.$pdata$_ZN5Cpdrv15TCommPortDriver16ApplyCOMSettingsEv
 0005:0000081C       CPDrv.$pdata$_ZN5Cpdrv15TCommPortDriver16SetBaudRateValueEj
 0005:0000084C       CPDrv.$pdata$_ZN5Cpdrv15TCommPortDriver16SetHwFlowControlENS_14THwFlowControlE
 0005:00000888       CPDrv.$pdata$_ZN5Cpdrv15TCommPortDriver16SetPacketTimeoutEi
 0005:00000858       CPDrv.$pdata$_ZN5Cpdrv15TCommPortDriver16SetSwFlowControlENS_14TSwFlowControlE
 0005:000008B8       CPDrv.$pdata$_ZN5Cpdrv15TCommPortDriver7ConnectEv
 0005:00000918       CPDrv.$pdata$_ZN5Cpdrv15TCommPortDriver7CountRXEv
 0005:000007E0       CPDrv.$pdata$_ZN5Cpdrv15TCommPortDriver7SetPortENS_11TPortNumberE
 0005:00000990       CPDrv.$pdata$_ZN5Cpdrv15TCommPortDriver8ReadByteERh
 0005:0000099C       CPDrv.$pdata$_ZN5Cpdrv15TCommPortDriver8ReadCharERc
 0005:00000984       CPDrv.$pdata$_ZN5Cpdrv15TCommPortDriver8ReadDataEPcj
 0005:00000948       CPDrv.$pdata$_ZN5Cpdrv15TCommPortDriver8SendByteEh
 0005:00000954       CPDrv.$pdata$_ZN5Cpdrv15TCommPortDriver8SendCharEc
 0005:0000093C       CPDrv.$pdata$_ZN5Cpdrv15TCommPortDriver8SendDataEPvj
 0005:000008D0       CPDrv.$pdata$_ZN5Cpdrv15TCommPortDriver9ConnectedEv
 0005:000008E8       CPDrv.$pdata$_ZN5Cpdrv15TCommPortDriver9IsPollingEv
 0005:000007D4       CPDrv.$pdata$_ZN5Cpdrv15TCommPortDriver9SetHandleEy
 0005:00000840       CPDrv.$pdata$_ZN5Cpdrv15TCommPortDriver9SetParityENS_7TParityE
 0005:000009A8       CPDrv.$pdata$_ZN5Cpdrv15TCommPortDriver9ToggleDTREb
 0005:000009B4       CPDrv.$pdata$_ZN5Cpdrv15TCommPortDriver9ToggleRTSEb
 0005:000007B0       CPDrv.$pdata$_ZN5Cpdrv15TCommPortDriverC3EPN6System7Classes10TComponentE
 0005:000007C8       CPDrv.$pdata$_ZN5Cpdrv15TCommPortDriverD0Ev
 0002:000007AC       CPDrv.$unwind$_ZN5Cpdrv10BaudRateOfENS_9TBaudRateE
 0002:000007B0       CPDrv.$unwind$_ZN5Cpdrv10DelayForRXENS_9TBaudRateEj
 0002:00000A1C       CPDrv.$unwind$_ZN5Cpdrv12FinalizationEv
 0002:000007A4       CPDrv.$unwind$_ZN5Cpdrv13GetWinVersionEv
 0002:00000794       CPDrv.$unwind$_ZN5Cpdrv14GetWinPlatformEv
 0002:00000A20       CPDrv.$unwind$_ZN5Cpdrv14initializationEv
 0002:00000914       CPDrv.$unwind$_ZN5Cpdrv15TCommPortDriver10DisconnectEv
 0002:00000968       CPDrv.$unwind$_ZN5Cpdrv15TCommPortDriver10SendDataExEPcjj
 0002:00000994       CPDrv.$unwind$_ZN5Cpdrv15TCommPortDriver10SendStringEN6System11AnsiStringTILt0EEE
 0002:000009C4       CPDrv.$unwind$_ZN5Cpdrv15TCommPortDriver11SendZStringEPc
 0002:0000086C       CPDrv.$unwind$_ZN5Cpdrv15TCommPortDriver11SetBaudRateENS_9TBaudRateE
 0002:0000087C       CPDrv.$unwind$_ZN5Cpdrv15TCommPortDriver11SetDataBitsENS_9TDataBitsE
 0002:0000083C       CPDrv.$unwind$_ZN5Cpdrv15TCommPortDriver11SetPortNameEN6System13UnicodeStringE
 0002:00000884       CPDrv.$unwind$_ZN5Cpdrv15TCommPortDriver11SetStopBitsENS_9TStopBitsE
 0002:0000093C       CPDrv.$unwind$_ZN5Cpdrv15TCommPortDriver12FlushBuffersEbb
 0002:0000095C       CPDrv.$unwind$_ZN5Cpdrv15TCommPortDriver12OutFreeSpaceEv
 0002:00000934       CPDrv.$unwind$_ZN5Cpdrv15TCommPortDriver12PausePollingEv
 0002:000008A4       CPDrv.$unwind$_ZN5Cpdrv15TCommPortDriver12SetInBufSizeEj
 0002:00000A0C       CPDrv.$unwind$_ZN5Cpdrv15TCommPortDriver12TimerWndProcERN6Winapi8Messages8TMessageE
 0002:00000920       CPDrv.$unwind$_ZN5Cpdrv15TCommPortDriver13GetLineStatusEv
 0002:000008B0       CPDrv.$unwind$_ZN5Cpdrv15TCommPortDriver13SetOutBufSizeEj
 0002:000008BC       CPDrv.$unwind$_ZN5Cpdrv15TCommPortDriver13SetPacketSizeEs
 0002:00000938       CPDrv.$unwind$_ZN5Cpdrv15TCommPortDriver15ContinuePollingEv
 0002:000008C8       CPDrv.$unwind$_ZN5Cpdrv15TCommPortDriver15SetPollingDelayEt
 0002:000008D4       CPDrv.$unwind$_ZN5Cpdrv15TCommPortDriver16ApplyCOMSettingsEv
 0002:00000874       CPDrv.$unwind$_ZN5Cpdrv15TCommPortDriver16SetBaudRateValueEj
 0002:00000894       CPDrv.$unwind$_ZN5Cpdrv15TCommPortDriver16SetHwFlowControlENS_14THwFlowControlE
 0002:000008C4       CPDrv.$unwind$_ZN5Cpdrv15TCommPortDriver16SetPacketTimeoutEi
 0002:0000089C       CPDrv.$unwind$_ZN5Cpdrv15TCommPortDriver16SetSwFlowControlENS_14TSwFlowControlE
 0002:00000904       CPDrv.$unwind$_ZN5Cpdrv15TCommPortDriver7ConnectEv
 0002:0000094C       CPDrv.$unwind$_ZN5Cpdrv15TCommPortDriver7CountRXEv
 0002:0000080C       CPDrv.$unwind$_ZN5Cpdrv15TCommPortDriver7SetPortENS_11TPortNumberE
 0002:000009E4       CPDrv.$unwind$_ZN5Cpdrv15TCommPortDriver8ReadByteERh
 0002:000009EC       CPDrv.$unwind$_ZN5Cpdrv15TCommPortDriver8ReadCharERc
 0002:000009D0       CPDrv.$unwind$_ZN5Cpdrv15TCommPortDriver8ReadDataEPcj
 0002:00000984       CPDrv.$unwind$_ZN5Cpdrv15TCommPortDriver8SendByteEh
 0002:0000098C       CPDrv.$unwind$_ZN5Cpdrv15TCommPortDriver8SendCharEc
 0002:0000097C       CPDrv.$unwind$_ZN5Cpdrv15TCommPortDriver8SendDataEPvj
 0002:0000091C       CPDrv.$unwind$_ZN5Cpdrv15TCommPortDriver9ConnectedEv
 0002:00000930       CPDrv.$unwind$_ZN5Cpdrv15TCommPortDriver9IsPollingEv
 0002:00000800       CPDrv.$unwind$_ZN5Cpdrv15TCommPortDriver9SetHandleEy
 0002:0000088C       CPDrv.$unwind$_ZN5Cpdrv15TCommPortDriver9SetParityENS_7TParityE
 0002:000009F4       CPDrv.$unwind$_ZN5Cpdrv15TCommPortDriver9ToggleDTREb
 0002:00000A00       CPDrv.$unwind$_ZN5Cpdrv15TCommPortDriver9ToggleRTSEb
 0002:000007B8       CPDrv.$unwind$_ZN5Cpdrv15TCommPortDriverC3EPN6System7Classes10TComponentE
 0002:000007F4       CPDrv.$unwind$_ZN5Cpdrv15TCommPortDriverD0Ev
 0003:000000E0       CPDrv..2
 0001:0000AAD8       CPDrv..TCommPortDriver
 0001:0000BD60       CPDrv.BaudRateOf
 0001:0000D070       CPDrv.CPDrv
 0001:0000BD80       CPDrv.DelayForRX
 0001:0000D060       CPDrv.Finalization
 0002:0000078C       CPDrv.funcs
 0002:00000784       CPDrv.funcs
 0001:0000BC40       CPDrv.GetWinPlatform
 0001:0000BD20       CPDrv.GetWinVersion
 0001:0000C550       CPDrv.TCommPortDriver.ApplyCOMSettings
 0001:0000C750       CPDrv.TCommPortDriver.Connect
 0001:0000C870       CPDrv.TCommPortDriver.Connected
 0001:0000C930       CPDrv.TCommPortDriver.ContinuePolling
 0001:0000C9A0       CPDrv.TCommPortDriver.CountRX
 0001:0000BDD0       CPDrv.TCommPortDriver.Create
 0001:0000C000       CPDrv.TCommPortDriver.Destroy
 0001:0000C830       CPDrv.TCommPortDriver.Disconnect
 0001:0000C940       CPDrv.TCommPortDriver.FlushBuffers
 0001:0000C880       CPDrv.TCommPortDriver.GetLineStatus
 0001:0000C910       CPDrv.TCommPortDriver.IsPolling
 0001:0000C9E0       CPDrv.TCommPortDriver.OutFreeSpace
 0001:0000C920       CPDrv.TCommPortDriver.PausePolling
 0001:0000CD40       CPDrv.TCommPortDriver.ReadByte
 0001:0000CD60       CPDrv.TCommPortDriver.ReadChar
 0001:0000CC80       CPDrv.TCommPortDriver.ReadData
 0001:0000CB60       CPDrv.TCommPortDriver.SendByte
 0001:0000CB90       CPDrv.TCommPortDriver.SendChar
 0001:0000CB40       CPDrv.TCommPortDriver.SendData
 0001:0000CA30       CPDrv.TCommPortDriver.SendDataEx
 0001:0000CBC0       CPDrv.TCommPortDriver.SendString
 0001:0000CC40       CPDrv.TCommPortDriver.SendZString
 0001:0000C230       CPDrv.TCommPortDriver.SetBaudRate
 0001:0000C270       CPDrv.TCommPortDriver.SetBaudRateValue
 0001:0000C2A0       CPDrv.TCommPortDriver.SetDataBits
 0001:0000C070       CPDrv.TCommPortDriver.SetHandle
 0001:0000C330       CPDrv.TCommPortDriver.SetHwFlowControl
 0001:0000C390       CPDrv.TCommPortDriver.SetInBufSize
 0001:0000C400       CPDrv.TCommPortDriver.SetOutBufSize
 0001:0000C440       CPDrv.TCommPortDriver.SetPacketSize
 0001:0000C480       CPDrv.TCommPortDriver.SetPacketTimeout
 0001:0000C300       CPDrv.TCommPortDriver.SetParity
 0001:0000C4D0       CPDrv.TCommPortDriver.SetPollingDelay
 0001:0000C0F0       CPDrv.TCommPortDriver.SetPort
 0001:0000C1B0       CPDrv.TCommPortDriver.SetPortName
 0001:0000C2D0       CPDrv.TCommPortDriver.SetStopBits
 0001:0000C360       CPDrv.TCommPortDriver.SetSwFlowControl
 0001:0000CE00       CPDrv.TCommPortDriver.TimerWndProc
 0001:0000CD80       CPDrv.TCommPortDriver.ToggleDTR
 0001:0000CDC0       CPDrv.TCommPortDriver.ToggleRTS
 0002:00000748       CPDrv.Win32BaudRates
 0005:00000768       Hemibtn.$pdata$_ZN7Hemibtn12FinalizationEv
 0005:00000774       Hemibtn.$pdata$_ZN7Hemibtn14initializationEv
 0005:00000738       Hemibtn.$pdata$_ZN7Hemibtn17THemisphereButton10CalcImagesEv
 0005:000005DC       Hemibtn.$pdata$_ZN7Hemibtn17THemisphereButton10SetCaptionEN6System13UnicodeStringE
 0005:000004F8       Hemibtn.$pdata$_ZN7Hemibtn17THemisphereButton11ReadImageInEPN6System7Classes7TStreamE
 0005:00000504       Hemibtn.$pdata$_ZN7Hemibtn17THemisphereButton12ReadImageOutEPN6System7Classes7TStreamE
 0005:000006CC       Hemibtn.$pdata$_ZN7Hemibtn17THemisphereButton12RenderBorderEPN3Vcl8Graphics7TCanvasEiiiiib
 0005:00000600       Hemibtn.$pdata$_ZN7Hemibtn17THemisphereButton12SetFaceColorEN6System7Uitypes6TColorE
 0005:0000066C       Hemibtn.$pdata$_ZN7Hemibtn17THemisphereButton12SetNumGlyphsEi
 0005:00000528       Hemibtn.$pdata$_ZN7Hemibtn17THemisphereButton12WriteImageInEPN6System7Classes7TStreamE
 0005:00000678       Hemibtn.$pdata$_ZN7Hemibtn17THemisphereButton13InsideEllipseEii
 0005:00000510       Hemibtn.$pdata$_ZN7Hemibtn17THemisphereButton13ReadImageMaskEPN6System7Classes7TStreamE
 0005:0000057C       Hemibtn.$pdata$_ZN7Hemibtn17THemisphereButton13SetAllowAllUpEb
 0005:000005A0       Hemibtn.$pdata$_ZN7Hemibtn17THemisphereButton13SetBevelInnerENS_16THemisphereBevelE
 0005:000005AC       Hemibtn.$pdata$_ZN7Hemibtn17THemisphereButton13SetBevelOuterENS_16THemisphereBevelE
 0005:00000594       Hemibtn.$pdata$_ZN7Hemibtn17THemisphereButton13SetBevelWidthEi
 0005:0000060C       Hemibtn.$pdata$_ZN7Hemibtn17THemisphereButton13SetFaceShadedEb
 0005:0000063C       Hemibtn.$pdata$_ZN7Hemibtn17THemisphereButton13SetGlyphIndexEi
 0005:00000534       Hemibtn.$pdata$_ZN7Hemibtn17THemisphereButton13WriteImageOutEPN6System7Classes7TStreamE
 0005:00000558       Hemibtn.$pdata$_ZN7Hemibtn17THemisphereButton14ReadGlyphValidEPN6System7Classes7TReaderE
 0005:0000051C       Hemibtn.$pdata$_ZN7Hemibtn17THemisphereButton14ReadImageGlyphEPN6System7Classes7TStreamE
 0005:000005B8       Hemibtn.$pdata$_ZN7Hemibtn17THemisphereButton14SetBorderColorEN6System7Uitypes6TColorE
 0005:000005C4       Hemibtn.$pdata$_ZN7Hemibtn17THemisphereButton14SetBorderStyleEN3Vcl5Forms16TFormBorderStyleE
 0005:00000648       Hemibtn.$pdata$_ZN7Hemibtn17THemisphereButton14SetGlyphMappedEb
 0005:00000654       Hemibtn.$pdata$_ZN7Hemibtn17THemisphereButton14SetGlyphShadedEb
 0005:00000540       Hemibtn.$pdata$_ZN7Hemibtn17THemisphereButton14WriteImageMaskEPN6System7Classes7TStreamE
 0005:00000588       Hemibtn.$pdata$_ZN7Hemibtn17THemisphereButton15SetAttenControlEd
 0005:00000564       Hemibtn.$pdata$_ZN7Hemibtn17THemisphereButton15WriteGlyphValidEPN6System7Classes7TWriterE
 0005:0000054C       Hemibtn.$pdata$_ZN7Hemibtn17THemisphereButton15WriteImageGlyphEPN6System7Classes7TStreamE
 0005:00000570       Hemibtn.$pdata$_ZN7Hemibtn17THemisphereButton16DefinePropertiesEPN6System7Classes6TFilerE
 0005:000006F0       Hemibtn.$pdata$_ZN7Hemibtn17THemisphereButton17RenderButtonFacesEiPN3Vcl8Graphics7TCanvasES4_S4_
 0005:00000618       Hemibtn.$pdata$_ZN7Hemibtn17THemisphereButton18SetFaceTransparentEb
 0005:00000660       Hemibtn.$pdata$_ZN7Hemibtn17THemisphereButton19SetGlyphTransparentEb
 0005:00000750       Hemibtn.$pdata$_ZN7Hemibtn17THemisphereButton5PaintEv
 0005:0000069C       Hemibtn.$pdata$_ZN7Hemibtn17THemisphereButton7MouseUpEN6System7Uitypes12TMouseButtonENS1_3SetINS1_7Classes17System_Classes__1ELS6_0ELS6_10EEEii
 0005:000005F4       Hemibtn.$pdata$_ZN7Hemibtn17THemisphereButton7SetDownEb
 0005:00000624       Hemibtn.$pdata$_ZN7Hemibtn17THemisphereButton7SetFontEPN3Vcl8Graphics5TFontE
 0005:00000630       Hemibtn.$pdata$_ZN7Hemibtn17THemisphereButton8SetGlyphEPN3Vcl8Graphics7TBitmapE
 0005:00000684       Hemibtn.$pdata$_ZN7Hemibtn17THemisphereButton9MouseDownEN6System7Uitypes12TMouseButtonENS1_3SetINS1_7Classes17System_Classes__1ELS6_0ELS6_10EEEii
 0005:00000690       Hemibtn.$pdata$_ZN7Hemibtn17THemisphereButton9MouseMoveEN6System3SetINS1_7Classes17System_Classes__1ELS4_0ELS4_10EEEii
 0005:000005D0       Hemibtn.$pdata$_ZN7Hemibtn17THemisphereButton9SetBoundsEiiii
 0005:000004D4       Hemibtn.$pdata$_ZN7Hemibtn17THemisphereButtonC3EPN6System7Classes10TComponentE
 0005:000004EC       Hemibtn.$pdata$_ZN7Hemibtn17THemisphereButtonD0Ev
 0005:000004B0       Hemibtn.$pdata$_ZN7Hemibtn4CeilEd
 0005:000004BC       Hemibtn.$pdata$_ZN7Hemibtn5FloorEd
 0005:000004C8       Hemibtn.$pdata$_ZN7Hemibtn7ArcTan2Edd
 0005:000004A4       Hemibtn.$pdata$_ZN7Hemibtn8RegisterEv
 0005:00000714       Hemibtn.$pdata$_ZZN7Hemibtn17THemisphereButton10CalcImagesEvE11DrawBordersPv
 0005:00000720       Hemibtn.$pdata$_ZZN7Hemibtn17THemisphereButton10CalcImagesEvE11DrawCaptionPv
 0005:0000072C       Hemibtn.$pdata$_ZZN7Hemibtn17THemisphereButton10CalcImagesEvE13CombineImagesPv
 0005:00000708       Hemibtn.$pdata$_ZZN7Hemibtn17THemisphereButton10CalcImagesEvE9DrawMasksPv
 0005:000006FC       Hemibtn.$pdata$_ZZN7Hemibtn17THemisphereButton10CalcImagesEvE9NewBitmapPvb
 0005:000006B4       Hemibtn.$pdata$_ZZN7Hemibtn17THemisphereButton12RenderBorderEPN3Vcl8Graphics7TCanvasEiiiiibE12SetPixel4WayPvii
 0005:000006C0       Hemibtn.$pdata$_ZZN7Hemibtn17THemisphereButton12RenderBorderEPN3Vcl8Graphics7TCanvasEiiiiibE12SetPixelNWayPvii
 0005:000006A8       Hemibtn.$pdata$_ZZN7Hemibtn17THemisphereButton12RenderBorderEPN3Vcl8Graphics7TCanvasEiiiiibE8SetPixelPviiddd
 0005:000006E4       Hemibtn.$pdata$_ZZN7Hemibtn17THemisphereButton17RenderButtonFacesEiPN3Vcl8Graphics7TCanvasES4_S4_E12SetFacePixelPviiddd
 0005:000006D8       Hemibtn.$pdata$_ZZZN7Hemibtn17THemisphereButton17RenderButtonFacesEiPN3Vcl8Graphics7TCanvasES4_S4_E12SetFacePixelPviidddE12CalcRGBAttenS5_
 0002:00000740       Hemibtn.$unwind$_ZN7Hemibtn12FinalizationEv
 0002:00000744       Hemibtn.$unwind$_ZN7Hemibtn14initializationEv
 0002:000006DC       Hemibtn.$unwind$_ZN7Hemibtn17THemisphereButton10CalcImagesEv
 0002:00000508       Hemibtn.$unwind$_ZN7Hemibtn17THemisphereButton10SetCaptionEN6System13UnicodeStringE
 0002:0000045C       Hemibtn.$unwind$_ZN7Hemibtn17THemisphereButton11ReadImageInEPN6System7Classes7TStreamE
 0002:00000464       Hemibtn.$unwind$_ZN7Hemibtn17THemisphereButton12ReadImageOutEPN6System7Classes7TStreamE
 0002:00000608       Hemibtn.$unwind$_ZN7Hemibtn17THemisphereButton12RenderBorderEPN3Vcl8Graphics7TCanvasEiiiiib
 0002:00000540       Hemibtn.$unwind$_ZN7Hemibtn17THemisphereButton12SetFaceColorEN6System7Uitypes6TColorE
 0002:00000594       Hemibtn.$unwind$_ZN7Hemibtn17THemisphereButton12SetNumGlyphsEi
 0002:0000047C       Hemibtn.$unwind$_ZN7Hemibtn17THemisphereButton12WriteImageInEPN6System7Classes7TStreamE
 0002:0000059C       Hemibtn.$unwind$_ZN7Hemibtn17THemisphereButton13InsideEllipseEii
 0002:0000046C       Hemibtn.$unwind$_ZN7Hemibtn17THemisphereButton13ReadImageMaskEPN6System7Classes7TStreamE
 0002:000004BC       Hemibtn.$unwind$_ZN7Hemibtn17THemisphereButton13SetAllowAllUpEb
 0002:000004DC       Hemibtn.$unwind$_ZN7Hemibtn17THemisphereButton13SetBevelInnerENS_16THemisphereBevelE
 0002:000004E4       Hemibtn.$unwind$_ZN7Hemibtn17THemisphereButton13SetBevelOuterENS_16THemisphereBevelE
 0002:000004D4       Hemibtn.$unwind$_ZN7Hemibtn17THemisphereButton13SetBevelWidthEi
 0002:00000548       Hemibtn.$unwind$_ZN7Hemibtn17THemisphereButton13SetFaceShadedEb
 0002:00000574       Hemibtn.$unwind$_ZN7Hemibtn17THemisphereButton13SetGlyphIndexEi
 0002:00000484       Hemibtn.$unwind$_ZN7Hemibtn17THemisphereButton13WriteImageOutEPN6System7Classes7TStreamE
 0002:0000049C       Hemibtn.$unwind$_ZN7Hemibtn17THemisphereButton14ReadGlyphValidEPN6System7Classes7TReaderE
 0002:00000474       Hemibtn.$unwind$_ZN7Hemibtn17THemisphereButton14ReadImageGlyphEPN6System7Classes7TStreamE
 0002:000004EC       Hemibtn.$unwind$_ZN7Hemibtn17THemisphereButton14SetBorderColorEN6System7Uitypes6TColorE
 0002:000004F4       Hemibtn.$unwind$_ZN7Hemibtn17THemisphereButton14SetBorderStyleEN3Vcl5Forms16TFormBorderStyleE
 0002:0000057C       Hemibtn.$unwind$_ZN7Hemibtn17THemisphereButton14SetGlyphMappedEb
 0002:00000584       Hemibtn.$unwind$_ZN7Hemibtn17THemisphereButton14SetGlyphShadedEb
 0002:0000048C       Hemibtn.$unwind$_ZN7Hemibtn17THemisphereButton14WriteImageMaskEPN6System7Classes7TStreamE
 0002:000004CC       Hemibtn.$unwind$_ZN7Hemibtn17THemisphereButton15SetAttenControlEd
 0002:000004A4       Hemibtn.$unwind$_ZN7Hemibtn17THemisphereButton15WriteGlyphValidEPN6System7Classes7TWriterE
 0002:00000494       Hemibtn.$unwind$_ZN7Hemibtn17THemisphereButton15WriteImageGlyphEPN6System7Classes7TStreamE
 0002:000004AC       Hemibtn.$unwind$_ZN7Hemibtn17THemisphereButton16DefinePropertiesEPN6System7Classes6TFilerE
 0002:0000065C       Hemibtn.$unwind$_ZN7Hemibtn17THemisphereButton17RenderButtonFacesEiPN3Vcl8Graphics7TCanvasES4_S4_
 0002:00000550       Hemibtn.$unwind$_ZN7Hemibtn17THemisphereButton18SetFaceTransparentEb
 0002:0000058C       Hemibtn.$unwind$_ZN7Hemibtn17THemisphereButton19SetGlyphTransparentEb
 0002:00000710       Hemibtn.$unwind$_ZN7Hemibtn17THemisphereButton5PaintEv
 0002:000005C0       Hemibtn.$unwind$_ZN7Hemibtn17THemisphereButton7MouseUpEN6System7Uitypes12TMouseButtonENS1_3SetINS1_7Classes17System_Classes__1ELS6_0ELS6_10EEEii
 0002:00000538       Hemibtn.$unwind$_ZN7Hemibtn17THemisphereButton7SetDownEb
 0002:00000558       Hemibtn.$unwind$_ZN7Hemibtn17THemisphereButton7SetFontEPN3Vcl8Graphics5TFontE
 0002:00000564       Hemibtn.$unwind$_ZN7Hemibtn17THemisphereButton8SetGlyphEPN3Vcl8Graphics7TBitmapE
 0002:000005A0       Hemibtn.$unwind$_ZN7Hemibtn17THemisphereButton9MouseDownEN6System7Uitypes12TMouseButtonENS1_3SetINS1_7Classes17System_Classes__1ELS6_0ELS6_10EEEii
 0002:000005B0       Hemibtn.$unwind$_ZN7Hemibtn17THemisphereButton9MouseMoveEN6System3SetINS1_7Classes17System_Classes__1ELS4_0ELS4_10EEEii
 0002:000004FC       Hemibtn.$unwind$_ZN7Hemibtn17THemisphereButton9SetBoundsEiiii
 0002:00000414       Hemibtn.$unwind$_ZN7Hemibtn17THemisphereButtonC3EPN6System7Classes10TComponentE
 0002:00000450       Hemibtn.$unwind$_ZN7Hemibtn17THemisphereButtonD0Ev
 0002:000003EC       Hemibtn.$unwind$_ZN7Hemibtn4CeilEd
 0002:000003FC       Hemibtn.$unwind$_ZN7Hemibtn5FloorEd
 0002:0000040C       Hemibtn.$unwind$_ZN7Hemibtn7ArcTan2Edd
 0002:000003E4       Hemibtn.$unwind$_ZN7Hemibtn8RegisterEv
 0002:000006A4       Hemibtn.$unwind$_ZZN7Hemibtn17THemisphereButton10CalcImagesEvE11DrawBordersPv
 0002:000006B4       Hemibtn.$unwind$_ZZN7Hemibtn17THemisphereButton10CalcImagesEvE11DrawCaptionPv
 0002:000006C8       Hemibtn.$unwind$_ZZN7Hemibtn17THemisphereButton10CalcImagesEvE13CombineImagesPv
 0002:00000694       Hemibtn.$unwind$_ZZN7Hemibtn17THemisphereButton10CalcImagesEvE9DrawMasksPv
 0002:00000680       Hemibtn.$unwind$_ZZN7Hemibtn17THemisphereButton10CalcImagesEvE9NewBitmapPvb
 0002:000005E0       Hemibtn.$unwind$_ZZN7Hemibtn17THemisphereButton12RenderBorderEPN3Vcl8Graphics7TCanvasEiiiiibE12SetPixel4WayPvii
 0002:000005F4       Hemibtn.$unwind$_ZZN7Hemibtn17THemisphereButton12RenderBorderEPN3Vcl8Graphics7TCanvasEiiiiibE12SetPixelNWayPvii
 0002:000005D0       Hemibtn.$unwind$_ZZN7Hemibtn17THemisphereButton12RenderBorderEPN3Vcl8Graphics7TCanvasEiiiiibE8SetPixelPviiddd
 0002:00000644       Hemibtn.$unwind$_ZZN7Hemibtn17THemisphereButton17RenderButtonFacesEiPN3Vcl8Graphics7TCanvasES4_S4_E12SetFacePixelPviiddd
 0002:00000638       Hemibtn.$unwind$_ZZZN7Hemibtn17THemisphereButton17RenderButtonFacesEiPN3Vcl8Graphics7TCanvasES4_S4_E12SetFacePixelPviidddE12CalcRGBAttenS5_
 0003:000000DC       Hemibtn..2
 0001:00005EE0       Hemibtn..THemisphereButton
 0001:00007080       Hemibtn.ArcTan2
 0001:00008890       Hemibtn.CalcRGBAtten
 0001:00006FE0       Hemibtn.Ceil
 0001:00009BE0       Hemibtn.CombineImages
 0001:00009610       Hemibtn.DrawBorders
 0001:000099B0       Hemibtn.DrawCaption
 0001:000093B0       Hemibtn.DrawMasks
 0001:0000A5C0       Hemibtn.Finalization
 0001:00007030       Hemibtn.Floor
 0001:0000A5D0       Hemibtn.Hemibtn
 0001:000092F0       Hemibtn.NewBitmap
 0001:00006F90       Hemibtn.Register
 0001:00008A20       Hemibtn.SetFacePixel
 0001:00008100       Hemibtn.SetPixel
 0001:000081D0       Hemibtn.SetPixel4Way
 0001:00008470       Hemibtn.SetPixelNWay
 0001:0000A0C0       Hemibtn.THemisphereButton.CalcImages
 0001:00007090       Hemibtn.THemisphereButton.Create
 0001:00007480       Hemibtn.THemisphereButton.DefineProperties
 0001:000072C0       Hemibtn.THemisphereButton.Destroy
 0001:00007D40       Hemibtn.THemisphereButton.InsideEllipse
 0001:00007DF0       Hemibtn.THemisphereButton.MouseDown
 0001:00007EC0       Hemibtn.THemisphereButton.MouseMove
 0001:00007F40       Hemibtn.THemisphereButton.MouseUp
 0001:0000A2E0       Hemibtn.THemisphereButton.Paint
 0001:00007440       Hemibtn.THemisphereButton.ReadGlyphValid
 0001:000073A0       Hemibtn.THemisphereButton.ReadImageGlyph
 0001:00007340       Hemibtn.THemisphereButton.ReadImageIn
 0001:00007380       Hemibtn.THemisphereButton.ReadImageMask
 0001:00007360       Hemibtn.THemisphereButton.ReadImageOut
 0001:00008500       Hemibtn.THemisphereButton.RenderBorder
 0001:00008F00       Hemibtn.THemisphereButton.RenderButtonFaces
 0001:00007680       Hemibtn.THemisphereButton.SetAllowAllUp
 0001:00007740       Hemibtn.THemisphereButton.SetAttenControl
 0001:000077C0       Hemibtn.THemisphereButton.SetBevelInner
 0001:000077F0       Hemibtn.THemisphereButton.SetBevelOuter
 0001:00007780       Hemibtn.THemisphereButton.SetBevelWidth
 0001:00007820       Hemibtn.THemisphereButton.SetBorderColor
 0001:00007850       Hemibtn.THemisphereButton.SetBorderStyle
 0001:00007880       Hemibtn.THemisphereButton.SetBounds
 0001:000078F0       Hemibtn.THemisphereButton.SetCaption
 0001:00007990       Hemibtn.THemisphereButton.SetDown
 0001:000079C0       Hemibtn.THemisphereButton.SetFaceColor
 0001:00007A20       Hemibtn.THemisphereButton.SetFaceShaded
 0001:00007A50       Hemibtn.THemisphereButton.SetFaceTransparent
 0001:00007A80       Hemibtn.THemisphereButton.SetFont
 0001:00007AC0       Hemibtn.THemisphereButton.SetGlyph
 0001:00007C30       Hemibtn.THemisphereButton.SetGlyphIndex
 0001:00007C80       Hemibtn.THemisphereButton.SetGlyphMapped
 0001:00007CB0       Hemibtn.THemisphereButton.SetGlyphShaded
 0001:00007CE0       Hemibtn.THemisphereButton.SetGlyphTransparent
 0001:00007D10       Hemibtn.THemisphereButton.SetNumGlyphs
 0001:00007460       Hemibtn.THemisphereButton.WriteGlyphValid
 0001:00007420       Hemibtn.THemisphereButton.WriteImageGlyph
 0001:000073C0       Hemibtn.THemisphereButton.WriteImageIn
 0001:00007400       Hemibtn.THemisphereButton.WriteImageMask
 0001:000073E0       Hemibtn.THemisphereButton.WriteImageOut
 0005:0000048C       JLLabel.$pdata$_ZN7Jllabel12FinalizationEv
 0005:00000474       JLLabel.$pdata$_ZN7Jllabel12TRotateLabel10DoDrawTextERN6System5Types5TRectEt
 0005:00000444       JLLabel.$pdata$_ZN7Jllabel12TRotateLabel11CalcTextPosERN6System5Types5TRectEiNS1_13UnicodeStringE
 0005:0000042C       JLLabel.$pdata$_ZN7Jllabel12TRotateLabel12SetTextStyleENS_10TTextStyleE
 0005:0000045C       JLLabel.$pdata$_ZN7Jllabel12TRotateLabel13DrawAngleTextEPN3Vcl8Graphics7TCanvasERKN6System5Types5TRectEiNS5_13UnicodeStringE
 0005:00000420       JLLabel.$pdata$_ZN7Jllabel12TRotateLabel13SetEscapementEi
 0005:00000438       JLLabel.$pdata$_ZN7Jllabel12TRotateLabel5PaintEv
 0005:00000408       JLLabel.$pdata$_ZN7Jllabel12TRotateLabelC3EPN6System7Classes10TComponentE
 0005:00000498       JLLabel.$pdata$_ZN7Jllabel14initializationEv
 0005:000003FC       JLLabel.$pdata$_ZN7Jllabel8RegisterEv
 0002:000003DC       JLLabel.$unwind$_ZN7Jllabel12FinalizationEv
 0002:000003A4       JLLabel.$unwind$_ZN7Jllabel12TRotateLabel10DoDrawTextERN6System5Types5TRectEt
 0002:00000330       JLLabel.$unwind$_ZN7Jllabel12TRotateLabel11CalcTextPosERN6System5Types5TRectEiNS1_13UnicodeStringE
 0002:00000318       JLLabel.$unwind$_ZN7Jllabel12TRotateLabel12SetTextStyleENS_10TTextStyleE
 0002:0000036C       JLLabel.$unwind$_ZN7Jllabel12TRotateLabel13DrawAngleTextEPN3Vcl8Graphics7TCanvasERKN6System5Types5TRectEiNS5_13UnicodeStringE
 0002:00000310       JLLabel.$unwind$_ZN7Jllabel12TRotateLabel13SetEscapementEi
 0002:00000320       JLLabel.$unwind$_ZN7Jllabel12TRotateLabel5PaintEv
 0002:000002D4       JLLabel.$unwind$_ZN7Jllabel12TRotateLabelC3EPN6System7Classes10TComponentE
 0002:000003E0       JLLabel.$unwind$_ZN7Jllabel14initializationEv
 0002:000002CC       JLLabel.$unwind$_ZN7Jllabel8RegisterEv
 0003:000000D8       JLLabel..2
 0001:00004778       JLLabel..TRotateLabel
 0002:000002C0       JLLabel.Alignments
 0001:00005E70       JLLabel.Finalization
 0001:00005E80       JLLabel.JLLabel
 0001:00005270       JLLabel.Register
 0001:00005510       JLLabel.TRotateLabel.CalcTextPos
 0001:000052C0       JLLabel.TRotateLabel.Create
 0001:00005B10       JLLabel.TRotateLabel.DoDrawText
 0001:000059E0       JLLabel.TRotateLabel.DrawAngleText
 0001:00005440       JLLabel.TRotateLabel.Paint
 0001:000053B0       JLLabel.TRotateLabel.SetEscapement
 0001:00005410       JLLabel.TRotateLabel.SetTextStyle
 0002:000002C6       JLLabel.WordWraps
 0005:00001074       OEdit.$pdata$_ZN5Oedit12FinalizationEv
 0005:00001080       OEdit.$pdata$_ZN5Oedit14initializationEv
 0005:00001008       OEdit.$pdata$_ZN5Oedit8RegisterEv
 0005:00001050       OEdit.$pdata$_ZN5Oedit8TOvrEdit17GetInsertKeyStateEv
 0005:0000105C       OEdit.$pdata$_ZN5Oedit8TOvrEdit6WMCharERN6Winapi8Messages6TWMKeyE
 0005:00001038       OEdit.$pdata$_ZN5Oedit8TOvrEdit7KeyDownERtN6System3SetINS2_7Classes17System_Classes__1ELS5_0ELS5_10EEE
 0005:00001044       OEdit.$pdata$_ZN5Oedit8TOvrEdit8KeyPressERw
 0005:00001014       OEdit.$pdata$_ZN5Oedit8TOvrEditC3EPN6System7Classes10TComponentE
 0005:0000102C       OEdit.$pdata$_ZN5Oedit8TOvrEditD0Ev
 0002:000011F0       OEdit.$unwind$_ZN5Oedit12FinalizationEv
 0002:000011F4       OEdit.$unwind$_ZN5Oedit14initializationEv
 0002:00001150       OEdit.$unwind$_ZN5Oedit8RegisterEv
 0002:000011B8       OEdit.$unwind$_ZN5Oedit8TOvrEdit17GetInsertKeyStateEv
 0002:000011C0       OEdit.$unwind$_ZN5Oedit8TOvrEdit6WMCharERN6Winapi8Messages6TWMKeyE
 0002:000011A0       OEdit.$unwind$_ZN5Oedit8TOvrEdit7KeyDownERtN6System3SetINS2_7Classes17System_Classes__1ELS5_0ELS5_10EEE
 0002:000011AC       OEdit.$unwind$_ZN5Oedit8TOvrEdit8KeyPressERw
 0002:00001158       OEdit.$unwind$_ZN5Oedit8TOvrEditC3EPN6System7Classes10TComponentE
 0002:00001194       OEdit.$unwind$_ZN5Oedit8TOvrEditD0Ev
 0003:000000F0       OEdit..2
 0001:00014070       OEdit..TOvrEdit
 0001:000149A0       OEdit.Finalization
 0001:000149B0       OEdit.OEdit
 0001:00014600       OEdit.Register
 0001:00014650       OEdit.TOvrEdit.Create
 0001:00014700       OEdit.TOvrEdit.Destroy
 0001:00014850       OEdit.TOvrEdit.GetInsertKeyState
 0001:00014740       OEdit.TOvrEdit.KeyDown
 0001:000147F0       OEdit.TOvrEdit.KeyPress
 0001:00014870       OEdit.TOvrEdit.WMChar
 0005:000000B4       SysInit.$pdata$delayhlp
 0005:0000000C       SysInit.$pdata$_ZN7Sysinit10GetTlsSizeEv
 0005:000000E4       SysInit.$pdata$_ZN7Sysinit12FinalizationEv
 0005:0000009C       SysInit.$pdata$_ZN7Sysinit12_PackageLoadEPN6System16PackageInfoTableE
 0005:00000030       SysInit.$pdata$_ZN7Sysinit13ExitThreadTLSEv
 0005:00000018       SysInit.$pdata$_ZN7Sysinit13InitThreadTLSEv
 0005:00000000       SysInit.$pdata$_ZN7Sysinit14AllocTlsBufferEi
 0005:0000003C       SysInit.$pdata$_ZN7Sysinit14ExitProcessTLSEv
 0005:000000F0       SysInit.$pdata$_ZN7Sysinit14initializationEv
 0005:00000024       SysInit.$pdata$_ZN7Sysinit14InitProcessTLSEv
 0005:000000A8       SysInit.$pdata$_ZN7Sysinit14_PackageUnloadEPN6System16PackageInfoTableE
 0005:00000060       SysInit.$pdata$_ZN7Sysinit14__dbkDummyProcEv
 0005:0000006C       SysInit.$pdata$_ZN7Sysinit14__dbkFCallArgsEPvS0_S0_S0_S0_S0_S0_S0_S0_S0_S0_S0_S0_S0_S0_S0_S0_S0_S0_S0_S0_S0_S0_S0_S0_S0_S0_S0_S0_S0_
 0005:00000048       SysInit.$pdata$_ZN7Sysinit16InitializeModuleEv
 0005:00000054       SysInit.$pdata$_ZN7Sysinit18UninitializeModuleEv
 0005:00000078       SysInit.$pdata$_ZN7Sysinit19__dbk_fcall_wrapperEv
 0005:00000090       SysInit.$pdata$_ZN7Sysinit8_InitPkgEyiPv
 0002:0000010C       SysInit.$unwind$delayhlp
 0002:00000050       SysInit.$unwind$_ZN7Sysinit10GetTlsSizeEv
 0002:0000016C       SysInit.$unwind$_ZN7Sysinit12FinalizationEv
 0002:000000FC       SysInit.$unwind$_ZN7Sysinit12_PackageLoadEPN6System16PackageInfoTableE
 0002:00000064       SysInit.$unwind$_ZN7Sysinit13ExitThreadTLSEv
 0002:00000054       SysInit.$unwind$_ZN7Sysinit13InitThreadTLSEv
 0002:00000010       SysInit.$unwind$_ZN7Sysinit14AllocTlsBufferEi
 0002:0000006C       SysInit.$unwind$_ZN7Sysinit14ExitProcessTLSEv
 0002:00000174       SysInit.$unwind$_ZN7Sysinit14initializationEv
 0002:0000005C       SysInit.$unwind$_ZN7Sysinit14InitProcessTLSEv
 0002:00000104       SysInit.$unwind$_ZN7Sysinit14_PackageUnloadEPN6System16PackageInfoTableE
 0002:000000A8       SysInit.$unwind$_ZN7Sysinit14__dbkDummyProcEv
 0002:000000AC       SysInit.$unwind$_ZN7Sysinit14__dbkFCallArgsEPvS0_S0_S0_S0_S0_S0_S0_S0_S0_S0_S0_S0_S0_S0_S0_S0_S0_S0_S0_S0_S0_S0_S0_S0_S0_S0_S0_S0_S0_
 0002:00000098       SysInit.$unwind$_ZN7Sysinit16InitializeModuleEv
 0002:000000A0       SysInit.$unwind$_ZN7Sysinit18UninitializeModuleEv
 0002:000000B4       SysInit.$unwind$_ZN7Sysinit19__dbk_fcall_wrapperEv
 0002:000000F0       SysInit.$unwind$_ZN7Sysinit8_InitPkgEyiPv
 0003:00000048       SysInit...__puiHead
 0003:00000030       SysInit..1
 0003:00000048       SysInit..bss.delayhlp
 0001:00000E80       SysInit..text.delayhlp
 0001:00000DC0       SysInit.@InitPkg
 0001:00000E40       SysInit.@PackageLoad
 0001:00000E60       SysInit.@PackageUnload
 0001:00000660       SysInit.@_dbkDummyProc
 0001:00000670       SysInit.@_dbkFCallArgs
 0001:00000A70       SysInit.@_dbk_fcall_wrapper
 0001:00000E80       SysInit.@_delayLoadHelper2
 0001:00001160       SysInit.@_FUnloadDelayLoadedDLL2
 0001:00001810       SysInit.@_HrLoadAllImportsForDll
 0003:00000028       SysInit.@_pfnDliFailureHook2
 0003:00000020       SysInit.@_pfnDliNotifyHook2
 0001:000004C0       SysInit.AllocTlsBuffer
 0003:00000018       SysInit.dbkFCallWrapperAddr
 0001:000005D0       SysInit.ExitProcessTLS
 0001:00000580       SysInit.ExitThreadTLS
 0001:00001CA0       SysInit.Finalization
 0001:00000410       SysInit.FreeLibrary
 0001:00000480       SysInit.GetLastError
 0001:000004B0       SysInit.GetProcAddress
 0001:000004E0       SysInit.GetTlsSize
 0003:00000008       SysInit.HInstance
 0001:00000600       SysInit.InitializeModule
 0001:00000540       SysInit.InitProcessTLS
 0001:000004F0       SysInit.InitThreadTLS
 0001:00000490       SysInit.LoadLibraryA
 0001:00000420       SysInit.LocalAlloc
 0001:00000430       SysInit.LocalFree
 0002:00000018       SysInit.Module
 0003:00000000       SysInit.ModuleIsLib
 0003:00000001       SysInit.ModuleIsPackage
 0002:00000008       SysInit.PtrToNil
 0001:000004A0       SysInit.RaiseException
 0001:00001970       SysInit.ShutdownDelayHelp2
 0001:00001CC0       SysInit.SysInit
 0001:00000440       SysInit.TlsAlloc
 0003:00000038       SysInit.tlsBuffer
 0001:00000450       SysInit.TlsFree
 0001:00000460       SysInit.TlsGetValue
 0002:00000000       SysInit.TlsIndex
 0004:00000000       SysInit.TlsLast
 0002:00000078       SysInit.TlsProc
 0001:00000470       SysInit.TlsSetValue
 0001:00000620       SysInit.UninitializeModule
 0003:00000040       SysInit.UseTlsAPI
 0003:FFFE2000       SysInit.__ImageBase
 0001:00000220       System.@AfterConstruction
 0001:00000180       System.@AsClass
 0001:00000230       System.@BeforeDestruction
 0001:00000200       System.@ClassCreate
 0001:00000210       System.@ClassDestroy
 0001:000000C0       System.@Close
 0001:00000240       System.@DelphiExceptionHandler
 0001:00000270       System.@DestroyException
 0001:00000280       System.@DoneExcept
 0001:000000D0       System.@FillChar
 0001:00000190       System.@FindDynaInst
 0001:00000010       System.@FreeMem
 0001:00000170       System.@IsClass
 0001:00000300       System.@LStrAddRef
 0001:000002D0       System.@LStrClr
 0001:00000370       System.@LStrFromUStr
 0001:00000330       System.@LStrLen
 0001:00000360       System.@LStrToPChar
 0001:00000290       System.@PackageLoad
 0001:000002A0       System.@PackageUnload
 0001:00000340       System.@PCharLen
 0001:00000260       System.@RaiseAgain
 0001:00000250       System.@RaiseExcept
 0001:000000A0       System.@ResetText
 0001:000000B0       System.@RewritText
 0001:00000080       System.@Round
 0001:000002B0       System.@RunError
 0001:00000090       System.@Trunc
 0001:00000350       System.@UniqueStringA
 0001:000002F0       System.@UStrAddRef
 0001:000002E0       System.@UStrArrayClr
 0001:00000310       System.@UStrAsg
 0001:000003A0       System.@UStrCat
 0001:000003B0       System.@UStrCatN
 0001:000002C0       System.@UStrClr
 0001:000003C0       System.@UStrEqual
 0001:00000390       System.@UStrFromWArray
 0001:00000320       System.@UStrLen
 0001:00000380       System.@UStrToPWChar
 0001:00000020       System.@_IOTest
 0001:00000000       System.AllocMem
 0001:00000050       System.Cos
 0001:000003F0       System.Finalization
 0001:00000040       System.Frac
 0001:00000030       System.Move
 0001:000003D0       System.RegisterModule
 0001:00000060       System.Sin
 0001:00000070       System.Sqrt
 0001:00000400       System.System
 0001:000001D0       System.TObject.AfterConstruction
 0001:000001E0       System.TObject.BeforeDestruction
 0001:00000100       System.TObject.CPP_ABI_1
 0001:00000110       System.TObject.CPP_ABI_2
 0001:00000120       System.TObject.CPP_ABI_3
 0001:00000130       System.TObject.Create
 0001:000001C0       System.TObject.DefaultHandler
 0001:000001F0       System.TObject.Dispatch
 0001:00000150       System.TObject.Equals
 0001:00000140       System.TObject.Free
 0001:000000F0       System.TObject.FreeInstance
 0001:00000160       System.TObject.GetHashCode
 0001:000000E0       System.TObject.NewInstance
 0001:000001A0       System.TObject.SafeCallException
 0001:000001B0       System.TObject.ToString
 0001:000003E0       System.UnregisterModule
 0001:00002F40       System.Actions.Finalization
 0001:00002F50       System.Actions.System.Actions
 0001:00003B20       System.AnsiStrings.AnsiStrAlloc
 0001:00003B40       System.AnsiStrings.Finalization
 0001:00003B30       System.AnsiStrings.StrDispose
 0001:00003B50       System.AnsiStrings.System.AnsiStrings
 0001:000022D0       System.Character.Finalization
 0001:000022E0       System.Character.System.Character
 0001:000028D0       System.Classes.AllocateHWnd
 0001:000028E0       System.Classes.DeallocateHWnd
 0001:00002950       System.Classes.Finalization
 0001:00002670       System.Classes.Rect
 0001:00002680       System.Classes.RegisterClasses
 0001:00002690       System.Classes.RegisterComponents
 0001:00002960       System.Classes.System.Classes
 0001:00002930       System.Classes.TBaseAsyncResult.Create@
 0001:00002940       System.Classes.TBaseAsyncResult.Destroy@
 0001:00002660       System.Classes.TBinaryWriter.Create@
 0001:000028F0       System.Classes.TBinaryWriter.Destroy@
 0001:000027A0       System.Classes.TComponent.AsyncSchedule
 0001:000027B0       System.Classes.TComponent.BeforeDestruction
 0001:00002880       System.Classes.TComponent.CanObserve
 0001:00002780       System.Classes.TComponent.Create
 0001:00002820       System.Classes.TComponent.Create@
 0001:000027D0       System.Classes.TComponent.DefineProperties
 0001:00002790       System.Classes.TComponent.Destroy
 0001:00002650       System.Classes.TComponent.Destroy@
 0001:00002840       System.Classes.TComponent.GetComponent
 0001:00002850       System.Classes.TComponent.GetComponentCount
 0001:00002860       System.Classes.TComponent.GetObservers
 0001:000027E0       System.Classes.TComponent.Loaded
 0001:000027C0       System.Classes.TComponent.Notification
 0001:00002890       System.Classes.TComponent.ObserverAdded
 0001:000028C0       System.Classes.TComponent.QueryInterface
 0001:000027F0       System.Classes.TComponent.ReadState
 0001:000028A0       System.Classes.TComponent.SafeCallException
 0001:00002830       System.Classes.TComponent.SetName
 0001:00002870       System.Classes.TComponent.UpdateAction
 0001:000028B0       System.Classes.TComponent.UpdateRegistry
 0001:00002810       System.Classes.TComponent.ValidateRename
 0001:00002800       System.Classes.TComponent.WriteState
 0001:000026A0       System.Classes.TFieldsCache.Create@
 0001:000026B0       System.Classes.TFieldsCache.Destroy@
 0001:000026C0       System.Classes.TList.Add
 0001:000026D0       System.Classes.TList.Expand
 0001:000026E0       System.Classes.TList.Get
 0001:000026F0       System.Classes.TList.Put
 0001:00002900       System.Classes.TLoginCredentialService.Create@
 0001:00002910       System.Classes.TLoginCredentialService.Destroy@
 0001:00002640       System.Classes.TObserverMapping.Create@
 0001:00002920       System.Classes.TObserverMapping.Destroy@
 0001:00002710       System.Classes.TPersistent.Assign
 0001:00002720       System.Classes.TPersistent.AssignTo
 0001:00002730       System.Classes.TPersistent.DefineProperties
 0001:00002700       System.Classes.TPersistent.Destroy
 0001:00002740       System.Classes.TReader.ReadBoolean
 0001:00002760       System.Classes.TThread.Create@
 0001:00002770       System.Classes.TThread.Destroy@
 0001:00002750       System.Classes.TWriter.WriteBoolean
 0001:00002EC0       System.Contnrs.Finalization
 0001:00002ED0       System.Contnrs.System.Contnrs
 0001:00002BB0       System.DateUtils.Finalization
 0001:00002BC0       System.DateUtils.System.DateUtils
 0001:00002B90       System.DateUtils.TTimeZone.Create@
 0001:00002BA0       System.DateUtils.TTimeZone.Destroy@
 0001:00002620       System.Diagnostics.Finalization
 0001:00002630       System.Diagnostics.System.Diagnostics
 0001:00002580       System.Generics.Collections.Finalization
 0001:00002590       System.Generics.Collections.System.Generics.Collections
 0001:00002560       System.Generics.Defaults.Finalization
 0001:00002570       System.Generics.Defaults.System.Generics.Defaults
 0001:00002530       System.Generics.Defaults.TIStringComparer.Create@
 0001:00002550       System.Generics.Defaults.TIStringComparer.Destroy@
 0001:00002520       System.Generics.Defaults.TStringComparer.Create@
 0001:00002540       System.Generics.Defaults.TStringComparer.Destroy@
 0001:000024D0       System.Hash.Finalization
 0001:000024E0       System.Hash.System.Hash
 0001:00002FA0       System.HelpIntfs.Finalization
 0001:00002FB0       System.HelpIntfs.System.HelpIntfs
 0001:00002EE0       System.ImageList.Finalization
 0001:00002EF0       System.ImageList.System.ImageList
 0001:00002C10       System.IniFiles.Finalization
 0001:00002C20       System.IniFiles.System.IniFiles
 0001:000022F0       System.Internal.ExcUtils.Finalization
 0001:00002300       System.Internal.ExcUtils.System.Internal.ExcUtils
 0001:00002BF0       System.IOUtils.Finalization
 0001:00002C00       System.IOUtils.System.IOUtils
 0001:00002BE0       System.IOUtils.TPath.Create@
 0001:00002BD0       System.IOUtils.TPath.Destroy@
 0001:00002B50       System.Masks.Finalization
 0001:00002B60       System.Masks.System.Masks
 0001:00003520       System.MaskUtils.Finalization
 0001:00003530       System.MaskUtils.System.MaskUtils
 0001:000024F0       System.Math.ArcTan2
 0001:00002500       System.Math.Finalization
 0001:00002510       System.Math.System.Math
 0001:00002F20       System.Messaging.Finalization
 0001:00002F30       System.Messaging.System.Messaging
 0001:00002F00       System.Messaging.TMessageManager.Create@
 0001:00002F10       System.Messaging.TMessageManager.UnInitialize@
 0001:000022B0       System.RTLConsts.Finalization
 0001:000022C0       System.RTLConsts.System.RTLConsts
 0001:000025C0       System.Rtti.Finalization
 0001:000025D0       System.Rtti.System.Rtti
 0001:000025B0       System.Rtti.TValue.Create@
 0001:000025A0       System.Rtti.TValue.Destroy@
 0001:00002B70       System.StrUtils.Finalization
 0001:00002B80       System.StrUtils.System.StrUtils
 0001:00002FC0       System.SyncObjs.Finalization
 0001:00002FD0       System.SyncObjs.System.SyncObjs
 0001:00002200       System.SysConst.Finalization
 0001:00002210       System.SysConst.System.SysConst
 0001:00002380       System.SysUtils.Exception.Create
 0001:000023D0       System.SysUtils.Exception.Create@
 0001:00002390       System.SysUtils.Exception.Destroy
 0001:000023E0       System.SysUtils.Exception.Destroy@
 0001:000023A0       System.SysUtils.Exception.GetBaseException
 0001:000023B0       System.SysUtils.Exception.RaisingException
 0001:000023C0       System.SysUtils.Exception.ToString
 0001:00002430       System.SysUtils.Finalization
 0001:00002370       System.SysUtils.Format
 0001:00002400       System.SysUtils.SafeLoadLibrary
 0001:00002360       System.SysUtils.StrAlloc
 0001:00002340       System.SysUtils.StrLen
 0001:00002350       System.SysUtils.StrPCopy
 0001:00002440       System.SysUtils.System.SysUtils
 0001:00002320       System.SysUtils.TEncoding.Create@
 0001:00002410       System.SysUtils.TEncoding.Destroy@
 0001:00002310       System.SysUtils.TLanguages.Create@
 0001:000023F0       System.SysUtils.TLanguages.Destroy@
 0001:00002420       System.SysUtils.TOSVersion.Create@
 0001:00002330       System.SysUtils.TOSVersion.Destroy@
 0001:00002600       System.TimeSpan.Finalization
 0001:00002610       System.TimeSpan.System.TimeSpan
 0001:000025F0       System.TimeSpan.TTimeSpan.Create@
 0001:000025E0       System.TimeSpan.TTimeSpan.Destroy@
 0001:00001CD0       System.Types.Finalization
 0001:00001CE0       System.Types.System.Types
 0001:000024B0       System.TypInfo.Finalization
 0001:000024C0       System.TypInfo.System.TypInfo
 0001:00002C70       System.UIConsts.Finalization
 0001:00002C80       System.UIConsts.System.UIConsts
 0001:00001CF0       System.UITypes.Finalization
 0001:00001D00       System.UITypes.System.UITypes
 0001:00002470       System.Variants.Finalization
 0001:00002480       System.Variants.System.Variants
 0001:00002450       System.VarUtils.Finalization
 0001:00002460       System.VarUtils.System.VarUtils
 0001:000039A0       System.WideStrUtils.Finalization
 0001:000039B0       System.WideStrUtils.System.WideStrUtils
 0001:00003B60       System.Win.ComConst.Finalization
 0001:00003B70       System.Win.ComConst.System.Win.ComConst
 0001:00003BA0       System.Win.ComObj.Finalization
 0001:00003BB0       System.Win.ComObj.System.Win.ComObj
 0001:00003B90       System.Win.ComObj.TComServerObject.Create@
 0001:00003B80       System.Win.ComObj.TComServerObject.Destroy@
 0005:000002F4       System.Win.Crtl.$pdata$_ZN6System3Win4Crtl12FinalizationEv
 0005:00000300       System.Win.Crtl.$pdata$_ZN6System3Win4Crtl14initializationEv
 0002:00000250       System.Win.Crtl.$unwind$_ZN6System3Win4Crtl12FinalizationEv
 0002:00000254       System.Win.Crtl.$unwind$_ZN6System3Win4Crtl14initializationEv
 0003:000000B0       System.Win.Crtl..1
 0001:00003020       System.Win.Crtl.Finalization
 0001:00003030       System.Win.Crtl.System.Win.Crtl
 0001:00002C50       System.Win.Registry.Finalization
 0001:00002C60       System.Win.Registry.System.Win.Registry
 0001:00002C40       System.Win.Registry.TRegistry.Create@
 0001:00002C30       System.Win.Registry.TRegistry.Destroy@
 0001:00003BC0       System.Win.Taskbar.Finalization
 0001:00003BD0       System.Win.Taskbar.System.Win.Taskbar
 0001:00003BE0       System.Win.TaskbarCore.Finalization
 0001:00003BF0       System.Win.TaskbarCore.System.Win.TaskbarCore
 0001:00003040       System.ZLib.Finalization
 0001:00003050       System.ZLib.System.ZLib
 0001:00002F80       Vcl.ActnList.Finalization
 0001:00002F90       Vcl.ActnList.Vcl.ActnList
 0001:00003540       Vcl.Clipbrd.Finalization
 0001:00003550       Vcl.Clipbrd.Vcl.Clipbrd
 0001:00003980       Vcl.ComCtrls.Finalization
 0001:00003920       Vcl.ComCtrls.TComboBoxEx.Create@
 0001:00003930       Vcl.ComCtrls.TComboBoxEx.Destroy@
 0001:000038A0       Vcl.ComCtrls.TCoolBar.Create@
 0001:000038B0       Vcl.ComCtrls.TCoolBar.Destroy@
 0001:00003900       Vcl.ComCtrls.TCustomComboBoxEx.Create@
 0001:00003910       Vcl.ComCtrls.TCustomComboBoxEx.Destroy@
 0001:000036E0       Vcl.ComCtrls.TCustomHeaderControl.Create@
 0001:000036F0       Vcl.ComCtrls.TCustomHeaderControl.Destroy@
 0001:00003800       Vcl.ComCtrls.TCustomHotKey.Create@
 0001:00003810       Vcl.ComCtrls.TCustomHotKey.Destroy@
 0001:00003840       Vcl.ComCtrls.TCustomListView.Create@
 0001:00003850       Vcl.ComCtrls.TCustomListView.Destroy@
 0001:00003780       Vcl.ComCtrls.TCustomRichEdit.Create@
 0001:00003790       Vcl.ComCtrls.TCustomRichEdit.Destroy@
 0001:000036C0       Vcl.ComCtrls.TCustomStatusBar.Create@
 0001:000036D0       Vcl.ComCtrls.TCustomStatusBar.Destroy@
 0001:00003680       Vcl.ComCtrls.TCustomTabControl.Create@
 0001:00003690       Vcl.ComCtrls.TCustomTabControl.Destroy@
 0001:00003700       Vcl.ComCtrls.TCustomTreeView.Create@
 0001:00003710       Vcl.ComCtrls.TCustomTreeView.Destroy@
 0001:000037C0       Vcl.ComCtrls.TCustomUpDown.Create@
 0001:000037D0       Vcl.ComCtrls.TCustomUpDown.Destroy@
 0001:000038C0       Vcl.ComCtrls.TDateTimePicker.Create@
 0001:000038D0       Vcl.ComCtrls.TDateTimePicker.Destroy@
 0001:00003960       Vcl.ComCtrls.THeaderControl.Create@
 0001:00003970       Vcl.ComCtrls.THeaderControl.Destroy@
 0001:00003820       Vcl.ComCtrls.THotKey.Create@
 0001:00003830       Vcl.ComCtrls.THotKey.Destroy@
 0001:00003860       Vcl.ComCtrls.TListView.Create@
 0001:00003870       Vcl.ComCtrls.TListView.Destroy@
 0001:000038E0       Vcl.ComCtrls.TPageScroller.Create@
 0001:000038F0       Vcl.ComCtrls.TPageScroller.Destroy@
 0001:00003760       Vcl.ComCtrls.TProgressBar.Create@
 0001:00003770       Vcl.ComCtrls.TProgressBar.Destroy@
 0001:000037A0       Vcl.ComCtrls.TRichEdit.Create@
 0001:000037B0       Vcl.ComCtrls.TRichEdit.Destroy@
 0001:00003940       Vcl.ComCtrls.TStatusBar.Create@
 0001:00003950       Vcl.ComCtrls.TStatusBar.Destroy@
 0001:000036A0       Vcl.ComCtrls.TTabControl.Create@
 0001:000036B0       Vcl.ComCtrls.TTabControl.Destroy@
 0001:00003880       Vcl.ComCtrls.TToolBar.Create@
 0001:00003890       Vcl.ComCtrls.TToolBar.Destroy@
 0001:00003740       Vcl.ComCtrls.TTrackBar.Create@
 0001:00003750       Vcl.ComCtrls.TTrackBar.Destroy@
 0001:00003720       Vcl.ComCtrls.TTreeView.Create@
 0001:00003730       Vcl.ComCtrls.TTreeView.Destroy@
 0001:000037E0       Vcl.ComCtrls.TUpDown.Create@
 0001:000037F0       Vcl.ComCtrls.TUpDown.Destroy@
 0001:00003990       Vcl.ComCtrls.Vcl.ComCtrls
 0001:00003640       Vcl.ComStrs.Finalization
 0001:00003650       Vcl.ComStrs.Vcl.ComStrs
 0001:00002C90       Vcl.Consts.Finalization
 0001:00002CA0       Vcl.Consts.Vcl.Consts
 0001:00004710       Vcl.Controls.Finalization
 0001:00004250       Vcl.Controls.TControl.AssignTo
 0001:000041E0       Vcl.Controls.TControl.AsyncSchedule
 0001:00004150       Vcl.Controls.TControl.CanAutoSize
 0001:00004160       Vcl.Controls.TControl.CanResize
 0001:00004170       Vcl.Controls.TControl.ConstrainedResize
 0001:000041D0       Vcl.Controls.TControl.CreateTouchManager
 0001:000041A0       Vcl.Controls.TControl.DefaultHandler
 0001:00003F40       Vcl.Controls.TControl.DefaultScalingFlags
 0001:000041B0       Vcl.Controls.TControl.DefineProperties
 0001:00004130       Vcl.Controls.TControl.DoGesture
 0001:00004140       Vcl.Controls.TControl.DoGetGestureOptions
 0001:00003E60       Vcl.Controls.TControl.GetAction
 0001:000042C0       Vcl.Controls.TControl.GetAllocatedWindowHandle
 0001:00003F20       Vcl.Controls.TControl.GetClientHeight
 0001:00003F30       Vcl.Controls.TControl.GetClientOrigin
 0001:00003F00       Vcl.Controls.TControl.GetClientRect
 0001:00003F10       Vcl.Controls.TControl.GetClientWidth
 0001:00003F70       Vcl.Controls.TControl.GetCurrentPPI
 0001:00003F50       Vcl.Controls.TControl.GetDesignDpi
 0001:000040E0       Vcl.Controls.TControl.GetDeviceContext
 0001:00003F60       Vcl.Controls.TControl.GetDPIForDesigner
 0001:00003E40       Vcl.Controls.TControl.GetDragImages
 0001:00003E90       Vcl.Controls.TControl.GetDragMode
 0001:00003E50       Vcl.Controls.TControl.GetEnabled
 0001:00004260       Vcl.Controls.TControl.GetFloating
 0001:00004270       Vcl.Controls.TControl.GetFloatingDockSiteClass
 0001:00003F80       Vcl.Controls.TControl.GetParentCurrentDpi
 0001:000042E0       Vcl.Controls.TControl.GetStyleName
 0001:000042D0       Vcl.Controls.TControl.GetSystemMetrics
 0001:00004010       Vcl.Controls.TControl.GetText
 0001:00003FF0       Vcl.Controls.TControl.GetTextLen
 0001:00004280       Vcl.Controls.TControl.InitiateAction
 0001:000040F0       Vcl.Controls.TControl.Invalidate
 0001:000041F0       Vcl.Controls.TControl.IsCaptionStored
 0001:000040B0       Vcl.Controls.TControl.IsColorStored
 0001:000042F0       Vcl.Controls.TControl.IsCustomStyleActive
 0001:00004200       Vcl.Controls.TControl.IsEnabledStored
 0001:00004050       Vcl.Controls.TControl.IsFontStored
 0001:00004210       Vcl.Controls.TControl.IsHintStored
 0001:00004300       Vcl.Controls.TControl.IsLightStyleColor
 0001:00004230       Vcl.Controls.TControl.IsOnClickStored
 0001:00004060       Vcl.Controls.TControl.IsShowHintStored
 0001:00004220       Vcl.Controls.TControl.IsVisibleStored
 0001:00004240       Vcl.Controls.TControl.Loaded
 0001:000041C0       Vcl.Controls.TControl.MouseDown
 0001:00003EB0       Vcl.Controls.TControl.Notification
 0001:00004180       Vcl.Controls.TControl.Perform
 0001:00003EA0       Vcl.Controls.TControl.ReadState
 0001:00004110       Vcl.Controls.TControl.Refresh
 0001:00004120       Vcl.Controls.TControl.Repaint
 0001:00003E80       Vcl.Controls.TControl.RequestAlign
 0001:00003F90       Vcl.Controls.TControl.ScaleForPPI
 0001:00003EC0       Vcl.Controls.TControl.SetAlign
 0001:00003FA0       Vcl.Controls.TControl.SetAutoSize
 0001:00004030       Vcl.Controls.TControl.SetBiDiMode
 0001:00003ED0       Vcl.Controls.TControl.SetBounds
 0001:000040A0       Vcl.Controls.TControl.SetColor
 0001:00003E70       Vcl.Controls.TControl.SetDragMode
 0001:00003FE0       Vcl.Controls.TControl.SetEnabled
 0001:00004040       Vcl.Controls.TControl.SetFont
 0001:00003EF0       Vcl.Controls.TControl.SetHeight
 0001:00003FB0       Vcl.Controls.TControl.SetName
 0001:00003FC0       Vcl.Controls.TControl.SetParent
 0001:000040D0       Vcl.Controls.TControl.SetParentBiDiMode
 0001:000040C0       Vcl.Controls.TControl.SetParentColor
 0001:00004070       Vcl.Controls.TControl.SetParentFont
 0001:00004090       Vcl.Controls.TControl.SetParentShowHint
 0001:00004000       Vcl.Controls.TControl.SetPopupMenu
 0001:00004080       Vcl.Controls.TControl.SetShowHint
 0001:000042A0       Vcl.Controls.TControl.SetStyleElements
 0001:000042B0       Vcl.Controls.TControl.SetStyleName
 0001:00004020       Vcl.Controls.TControl.SetText
 0001:00003FD0       Vcl.Controls.TControl.SetVisible
 0001:00003EE0       Vcl.Controls.TControl.SetWidth
 0001:00004100       Vcl.Controls.TControl.Update
 0001:00004290       Vcl.Controls.TControl.UpdateStyleElements
 0001:00004190       Vcl.Controls.TControl.WndProc
 0001:000046E0       Vcl.Controls.TCustomControl.Create
 0001:000046F0       Vcl.Controls.TCustomControl.Destroy
 0001:00004700       Vcl.Controls.TCustomControl.PaintWindow
 0001:000046C0       Vcl.Controls.TGraphicControl.Create
 0001:000046D0       Vcl.Controls.TGraphicControl.Destroy
 0001:00004330       Vcl.Controls.TWinControl.AdjustClientRect
 0001:00004340       Vcl.Controls.TWinControl.AlignControls
 0001:00004640       Vcl.Controls.TWinControl.AssignTo
 0001:00004630       Vcl.Controls.TWinControl.AsyncSchedule
 0001:00004650       Vcl.Controls.TWinControl.CanAutoSize
 0001:00004600       Vcl.Controls.TWinControl.CanResize
 0001:00004610       Vcl.Controls.TWinControl.ConstrainedResize
 0001:000043D0       Vcl.Controls.TWinControl.CreateHandle
 0001:00004360       Vcl.Controls.TWinControl.CreateParams
 0001:00004380       Vcl.Controls.TWinControl.CreateWindowHandle
 0001:00004370       Vcl.Controls.TWinControl.CreateWnd
 0001:000043E0       Vcl.Controls.TWinControl.CustomAlignInsertBefore
 0001:000043F0       Vcl.Controls.TWinControl.CustomAlignPosition
 0001:00004430       Vcl.Controls.TWinControl.DefaultHandler
 0001:00004390       Vcl.Controls.TWinControl.DefineProperties
 0001:00004310       Vcl.Controls.TWinControl.Destroy
 0001:00004400       Vcl.Controls.TWinControl.DestroyHandle
 0001:000043C0       Vcl.Controls.TWinControl.DestroyWindowHandle
 0001:000043B0       Vcl.Controls.TWinControl.DestroyWnd
 0001:00004670       Vcl.Controls.TWinControl.DockReplaceDockClient
 0001:000043A0       Vcl.Controls.TWinControl.DoWritePixelsPerInch
 0001:000046B0       Vcl.Controls.TWinControl.GetAllocatedWindowHandle
 0001:000045A0       Vcl.Controls.TWinControl.GetClientOrigin
 0001:000045B0       Vcl.Controls.TWinControl.GetClientRect
 0001:00004590       Vcl.Controls.TWinControl.GetControlExtents
 0001:00004520       Vcl.Controls.TWinControl.GetDeviceContext
 0001:00004580       Vcl.Controls.TWinControl.GetDPIForDesigner
 0001:00004570       Vcl.Controls.TWinControl.GetHandle
 0001:000045C0       Vcl.Controls.TWinControl.GetPixelsPerInch
 0001:000045F0       Vcl.Controls.TWinControl.HandleAllocated
 0001:00004530       Vcl.Controls.TWinControl.Invalidate
 0001:000044B0       Vcl.Controls.TWinControl.KeyDown
 0001:000044C0       Vcl.Controls.TWinControl.KeyPress
 0001:00004350       Vcl.Controls.TWinControl.Notification
 0001:00004440       Vcl.Controls.TWinControl.PaintWindow
 0001:00004320       Vcl.Controls.TWinControl.ReadState
 0001:00004550       Vcl.Controls.TWinControl.Repaint
 0001:00004480       Vcl.Controls.TWinControl.RequestAlign
 0001:000044A0       Vcl.Controls.TWinControl.ResetIme
 0001:00004500       Vcl.Controls.TWinControl.ScaleControlsForDpi
 0001:000044F0       Vcl.Controls.TWinControl.ScaleForPPI
 0001:000044E0       Vcl.Controls.TWinControl.SetBounds
 0001:00004560       Vcl.Controls.TWinControl.SetFocus
 0001:00004490       Vcl.Controls.TWinControl.SetIme
 0001:000046A0       Vcl.Controls.TWinControl.SetParent
 0001:00004660       Vcl.Controls.TWinControl.SetParentBackground
 0001:00004410       Vcl.Controls.TWinControl.SetParentDoubleBuffered
 0001:000045D0       Vcl.Controls.TWinControl.SetPixelsPerInch
 0001:000045E0       Vcl.Controls.TWinControl.SetTabStop
 0001:00004510       Vcl.Controls.TWinControl.ShowControl
 0001:00004540       Vcl.Controls.TWinControl.Update
 0001:00004690       Vcl.Controls.TWinControl.UpdateControlOriginalParentSize
 0001:00004620       Vcl.Controls.TWinControl.UpdateStyleElements
 0001:00004680       Vcl.Controls.TWinControl.UpdateTIPStatus
 0001:000044D0       Vcl.Controls.TWinControl.WMChar
 0001:00004470       Vcl.Controls.TWinControl.WMKillFocus
 0001:00004460       Vcl.Controls.TWinControl.WMSetFocus
 0001:00004450       Vcl.Controls.TWinControl.WMSize
 0001:00004420       Vcl.Controls.TWinControl.WndProc
 0001:00004720       Vcl.Controls.Vcl.Controls
 0001:000039E0       Vcl.Dialogs.Finalization
 0001:000039F0       Vcl.Dialogs.Vcl.Dialogs
 0001:00003AA0       Vcl.ExtCtrls.Finalization
 0001:00003A40       Vcl.ExtCtrls.TCategoryPanelGroup.Create@
 0001:00003A50       Vcl.ExtCtrls.TCategoryPanelGroup.Destroy@
 0001:00003A20       Vcl.ExtCtrls.TCustomCategoryPanelGroup.Create@
 0001:00003A30       Vcl.ExtCtrls.TCustomCategoryPanelGroup.Destroy@
 0001:00003A60       Vcl.ExtCtrls.TCustomLinkLabel.Create@
 0001:00003A70       Vcl.ExtCtrls.TCustomLinkLabel.Destroy@
 0001:00003A00       Vcl.ExtCtrls.TCustomPanel.Create@
 0001:00003A10       Vcl.ExtCtrls.TCustomPanel.Destroy@
 0001:00003A80       Vcl.ExtCtrls.TLinkLabel.Create@
 0001:00003A90       Vcl.ExtCtrls.TLinkLabel.Destroy@
 0001:00003AB0       Vcl.ExtCtrls.Vcl.ExtCtrls
 0001:00003CD0       Vcl.Forms.Finalization
 0001:00003C40       Vcl.Forms.GetParentForm
 0001:00003CC0       Vcl.Forms.TApplication.HandleMessage
 0001:00003CB0       Vcl.Forms.TApplication.ProcessMessages
 0001:00003C70       Vcl.Forms.TCustomForm.Create@
 0001:00003C80       Vcl.Forms.TCustomForm.Destroy@
 0001:00003C90       Vcl.Forms.TForm.Create@
 0001:00003CA0       Vcl.Forms.TForm.Destroy@
 0001:00003C50       Vcl.Forms.TScrollBox.Create@
 0001:00003C60       Vcl.Forms.TScrollBox.Destroy@
 0001:00003CE0       Vcl.Forms.Vcl.Forms
 0001:00002CD0       Vcl.Graphics.ColorToRGB
 0001:00002E80       Vcl.Graphics.Finalization
 0001:00002E60       Vcl.Graphics.TBitmap.Create
 0001:00002E70       Vcl.Graphics.TBitmap.GetCanvas
 0001:00002DC0       Vcl.Graphics.TBrush.SetBitmap
 0001:00002DD0       Vcl.Graphics.TBrush.SetColor
 0001:00002DE0       Vcl.Graphics.TBrush.SetStyle
 0001:00002E10       Vcl.Graphics.TCanvas.CopyRect
 0001:00002E40       Vcl.Graphics.TCanvas.GetHandle
 0001:00002E30       Vcl.Graphics.TCanvas.SetBrush
 0001:00002E20       Vcl.Graphics.TCanvas.SetFont
 0001:00002E50       Vcl.Graphics.TCanvas.SetHandle
 0001:00002DF0       Vcl.Graphics.TCustomCanvas.TextHeight
 0001:00002E00       Vcl.Graphics.TCustomCanvas.TextWidth
 0001:00002D10       Vcl.Graphics.TFont.Assign
 0001:00002D00       Vcl.Graphics.TFont.Changed
 0001:00002CE0       Vcl.Graphics.TFont.Create
 0001:00002CF0       Vcl.Graphics.TFont.Destroy
 0001:00002D30       Vcl.Graphics.TFont.GetHandle
 0001:00002D50       Vcl.Graphics.TFont.GetName
 0001:00002D70       Vcl.Graphics.TFont.GetSize
 0001:00002D90       Vcl.Graphics.TFont.GetStyle
 0001:00002D20       Vcl.Graphics.TFont.SetColor
 0001:00002D40       Vcl.Graphics.TFont.SetHandle
 0001:00002D60       Vcl.Graphics.TFont.SetName
 0001:00002D80       Vcl.Graphics.TFont.SetSize
 0001:00002DA0       Vcl.Graphics.TFont.SetStyle
 0001:00002DB0       Vcl.Graphics.TPen.SetColor
 0001:00002CB0       Vcl.Graphics.TWICImage.Create@
 0001:00002CC0       Vcl.Graphics.TWICImage.Destroy@
 0001:00002E90       Vcl.Graphics.Vcl.Graphics
 0001:00003060       Vcl.GraphUtil.Finalization
 0001:00003070       Vcl.GraphUtil.Vcl.GraphUtil
 0001:00012970       Vcl.Grids.Finalization
 0001:000128D0       Vcl.Grids.TCustomDrawGrid.Create@
 0001:000128E0       Vcl.Grids.TCustomDrawGrid.Destroy@
 0001:000128F0       Vcl.Grids.TCustomDrawGrid.SelectCell
 0001:000128C0       Vcl.Grids.TCustomGrid.CalcColWidth
 0001:00012880       Vcl.Grids.TCustomGrid.CalcExpandedCellRect
 0001:00012800       Vcl.Grids.TCustomGrid.CalcSizingState
 0001:000127B0       Vcl.Grids.TCustomGrid.CanEditShow
 0001:000127E0       Vcl.Grids.TCustomGrid.CanObserve
 0001:00012790       Vcl.Grids.TCustomGrid.Create@
 0001:00012840       Vcl.Grids.TCustomGrid.CreateEditor
 0001:00012850       Vcl.Grids.TCustomGrid.CreateParams
 0001:00012860       Vcl.Grids.TCustomGrid.CreateWnd
 0001:000127C0       Vcl.Grids.TCustomGrid.DefineProperties
 0001:000128A0       Vcl.Grids.TCustomGrid.DeleteColumn
 0001:000128B0       Vcl.Grids.TCustomGrid.DeleteRow
 0001:000127A0       Vcl.Grids.TCustomGrid.Destroy@
 0001:00012870       Vcl.Grids.TCustomGrid.DoGesture
 0001:00012820       Vcl.Grids.TCustomGrid.DrawCellBackground
 0001:00012810       Vcl.Grids.TCustomGrid.DrawCellHighlight
 0001:000127F0       Vcl.Grids.TCustomGrid.ObserverAdded
 0001:000127D0       Vcl.Grids.TCustomGrid.Paint
 0001:00012830       Vcl.Grids.TCustomGrid.SelectionMoved
 0001:00012890       Vcl.Grids.TCustomGrid.SetStyleElements
 0001:00012950       Vcl.Grids.TDrawGrid.Create@
 0001:00012960       Vcl.Grids.TDrawGrid.Destroy@
 0001:00012900       Vcl.Grids.TStringGrid.Create
 0001:00012910       Vcl.Grids.TStringGrid.Create@
 0001:00012930       Vcl.Grids.TStringGrid.Destroy
 0001:00012920       Vcl.Grids.TStringGrid.Destroy@
 0001:00012940       Vcl.Grids.TStringGrid.GetCells
 0001:00012980       Vcl.Grids.Vcl.Grids
 0001:00003CF0       Vcl.ImgList.Finalization
 0001:00003D00       Vcl.ImgList.Vcl.ImgList
 0001:00003620       Vcl.ListActns.Finalization
 0001:00003630       Vcl.ListActns.Vcl.ListActns
 0001:00003560       Vcl.Mask.Finalization
 0001:00003570       Vcl.Mask.Vcl.Mask
 0001:00003D10       Vcl.Menus.Finalization
 0001:00003D20       Vcl.Menus.Vcl.Menus
 0001:000035C0       Vcl.Printers.Finalization
 0001:000035D0       Vcl.Printers.Vcl.Printers
 0001:00003660       Vcl.StdActns.Finalization
 0001:00003670       Vcl.StdActns.Vcl.StdActns
 0001:00003500       Vcl.StdCtrls.Finalization
 0001:00003480       Vcl.StdCtrls.TButton.Create@
 0001:00003490       Vcl.StdCtrls.TButton.Destroy@
 0001:000034A0       Vcl.StdCtrls.TCheckBox.Create@
 0001:000034B0       Vcl.StdCtrls.TCheckBox.Destroy@
 0001:00003460       Vcl.StdCtrls.TComboBox.Create@
 0001:00003470       Vcl.StdCtrls.TComboBox.Destroy@
 0001:00003340       Vcl.StdCtrls.TCustomButton.Create@
 0001:00003350       Vcl.StdCtrls.TCustomButton.Destroy@
 0001:00003360       Vcl.StdCtrls.TCustomCheckBox.Create@
 0001:00003370       Vcl.StdCtrls.TCustomCheckBox.Destroy@
 0001:00003320       Vcl.StdCtrls.TCustomComboBox.Create@
 0001:00003330       Vcl.StdCtrls.TCustomComboBox.Destroy@
 0001:00003260       Vcl.StdCtrls.TCustomEdit.CanObserve
 0001:00003210       Vcl.StdCtrls.TCustomEdit.Clear
 0001:00003170       Vcl.StdCtrls.TCustomEdit.Create
 0001:00003160       Vcl.StdCtrls.TCustomEdit.Create@
 0001:000032A0       Vcl.StdCtrls.TCustomEdit.CreateParams
 0001:000032B0       Vcl.StdCtrls.TCustomEdit.CreateWindowHandle
 0001:000032C0       Vcl.StdCtrls.TCustomEdit.CreateWnd
 0001:000032F0       Vcl.StdCtrls.TCustomEdit.DefaultHandler
 0001:00003180       Vcl.StdCtrls.TCustomEdit.Destroy@
 0001:000032D0       Vcl.StdCtrls.TCustomEdit.DestroyWnd
 0001:00003190       Vcl.StdCtrls.TCustomEdit.DoSetMaxLength
 0001:000031A0       Vcl.StdCtrls.TCustomEdit.DoSetTextHint
 0001:000031E0       Vcl.StdCtrls.TCustomEdit.GetSelLength
 0001:000031C0       Vcl.StdCtrls.TCustomEdit.GetSelStart
 0001:00003230       Vcl.StdCtrls.TCustomEdit.GetSelText
 0001:00003220       Vcl.StdCtrls.TCustomEdit.GetSelTextBuf
 0001:00003240       Vcl.StdCtrls.TCustomEdit.KeyDown
 0001:00003250       Vcl.StdCtrls.TCustomEdit.KeyPress
 0001:00003270       Vcl.StdCtrls.TCustomEdit.ObserverAdded
 0001:00003280       Vcl.StdCtrls.TCustomEdit.ObserverToggle
 0001:000031B0       Vcl.StdCtrls.TCustomEdit.SetAutoSize
 0001:000031F0       Vcl.StdCtrls.TCustomEdit.SetSelLength
 0001:000031D0       Vcl.StdCtrls.TCustomEdit.SetSelStart
 0001:00003290       Vcl.StdCtrls.TCustomEdit.SetSelText
 0001:000032E0       Vcl.StdCtrls.TCustomEdit.UpdateEditMargins
 0001:00003200       Vcl.StdCtrls.TCustomEdit.UpdateTIPStatus
 0001:00003080       Vcl.StdCtrls.TCustomGroupBox.Create@
 0001:00003090       Vcl.StdCtrls.TCustomGroupBox.Destroy@
 0001:000030A0       Vcl.StdCtrls.TCustomLabel.Create
 0001:000030B0       Vcl.StdCtrls.TCustomLabel.GetLabelText
 0001:000030F0       Vcl.StdCtrls.TCustomLabel.GetTransparent
 0001:000030C0       Vcl.StdCtrls.TCustomLabel.Loaded
 0001:00003140       Vcl.StdCtrls.TCustomLabel.Notification
 0001:000030D0       Vcl.StdCtrls.TCustomLabel.SetAlignment
 0001:000030E0       Vcl.StdCtrls.TCustomLabel.SetAutoSize
 0001:00003100       Vcl.StdCtrls.TCustomLabel.SetFocusControl
 0001:00003110       Vcl.StdCtrls.TCustomLabel.SetShowAccelChar
 0001:00003120       Vcl.StdCtrls.TCustomLabel.SetTransparent
 0001:00003130       Vcl.StdCtrls.TCustomLabel.SetWordWrap
 0001:00003150       Vcl.StdCtrls.TCustomLabel.UpdateStyleElements
 0001:000033A0       Vcl.StdCtrls.TCustomListBox.Create@
 0001:000033B0       Vcl.StdCtrls.TCustomListBox.Destroy@
 0001:00003300       Vcl.StdCtrls.TCustomMemo.Create@
 0001:00003310       Vcl.StdCtrls.TCustomMemo.Destroy@
 0001:000033E0       Vcl.StdCtrls.TCustomStaticText.Create@
 0001:000033F0       Vcl.StdCtrls.TCustomStaticText.Destroy@
 0001:00003420       Vcl.StdCtrls.TEdit.Create@
 0001:00003430       Vcl.StdCtrls.TEdit.Destroy@
 0001:00003400       Vcl.StdCtrls.TGroupBox.Create@
 0001:00003410       Vcl.StdCtrls.TGroupBox.Destroy@
 0001:000034C0       Vcl.StdCtrls.TListBox.Create@
 0001:000034D0       Vcl.StdCtrls.TListBox.Destroy@
 0001:00003440       Vcl.StdCtrls.TMemo.Create@
 0001:00003450       Vcl.StdCtrls.TMemo.Destroy@
 0001:00003380       Vcl.StdCtrls.TRadioButton.Create@
 0001:00003390       Vcl.StdCtrls.TRadioButton.Destroy@
 0001:000033C0       Vcl.StdCtrls.TScrollBar.Create@
 0001:000033D0       Vcl.StdCtrls.TScrollBar.Destroy@
 0001:000034E0       Vcl.StdCtrls.TStaticText.Create@
 0001:000034F0       Vcl.StdCtrls.TStaticText.Destroy@
 0001:00003510       Vcl.StdCtrls.Vcl.StdCtrls
 0001:00003B00       Vcl.Themes.Finalization
 0001:00003AE0       Vcl.Themes.TCustomStyleEngine.Create@
 0001:00003AF0       Vcl.Themes.TCustomStyleEngine.Destroy@
 0001:00003AD0       Vcl.Themes.TStyleManager.Create@
 0001:00003AC0       Vcl.Themes.TStyleManager.Destroy@
 0001:00003B10       Vcl.Themes.Vcl.Themes
 0001:00003600       Vcl.ToolWin.Finalization
 0001:00003610       Vcl.ToolWin.Vcl.ToolWin
 0005:00000174       Winapi.ActiveX.$pdata$_ZN6Winapi7Activex12FinalizationEv
 0005:00000180       Winapi.ActiveX.$pdata$_ZN6Winapi7Activex14initializationEv
 0002:000001D0       Winapi.ActiveX.$unwind$_ZN6Winapi7Activex12FinalizationEv
 0002:000001D4       Winapi.ActiveX.$unwind$_ZN6Winapi7Activex14initializationEv
 0003:00000070       Winapi.ActiveX..1
 0001:00002490       Winapi.ActiveX.Finalization
 0001:000024A0       Winapi.ActiveX.Winapi.ActiveX
 0005:0000018C       Winapi.CommCtrl.$pdata$_ZN6Winapi8Commctrl12FinalizationEv
 0005:00000198       Winapi.CommCtrl.$pdata$_ZN6Winapi8Commctrl14initializationEv
 0002:000001D8       Winapi.CommCtrl.$unwind$_ZN6Winapi8Commctrl12FinalizationEv
 0002:000001DC       Winapi.CommCtrl.$unwind$_ZN6Winapi8Commctrl14initializationEv
 0003:00000074       Winapi.CommCtrl..1
 0001:00002990       Winapi.CommCtrl.Finalization
 0001:000029A0       Winapi.CommCtrl.Winapi.CommCtrl
 0005:0000030C       Winapi.CommDlg.$pdata$_ZN6Winapi7Commdlg12FinalizationEv
 0005:00000318       Winapi.CommDlg.$pdata$_ZN6Winapi7Commdlg14initializationEv
 0002:00000258       Winapi.CommDlg.$unwind$_ZN6Winapi7Commdlg12FinalizationEv
 0002:0000025C       Winapi.CommDlg.$unwind$_ZN6Winapi7Commdlg14initializationEv
 0003:000000B4       Winapi.CommDlg..1
 0001:00003580       Winapi.CommDlg.Finalization
 0001:00003590       Winapi.CommDlg.Winapi.CommDlg
 0005:00000354       Winapi.Dlgs.$pdata$_ZN6Winapi4Dlgs12FinalizationEv
 0005:00000360       Winapi.Dlgs.$pdata$_ZN6Winapi4Dlgs14initializationEv
 0002:00000270       Winapi.Dlgs.$unwind$_ZN6Winapi4Dlgs12FinalizationEv
 0002:00000274       Winapi.Dlgs.$unwind$_ZN6Winapi4Dlgs14initializationEv
 0003:000000C0       Winapi.Dlgs..1
 0001:000039C0       Winapi.Dlgs.Finalization
 0001:000039D0       Winapi.Dlgs.Winapi.Dlgs
 0005:000002DC       Winapi.Dwmapi.$pdata$_ZN6Winapi6Dwmapi12FinalizationEv
 0005:000002E8       Winapi.Dwmapi.$pdata$_ZN6Winapi6Dwmapi14initializationEv
 0002:00000248       Winapi.Dwmapi.$unwind$_ZN6Winapi6Dwmapi12FinalizationEv
 0002:0000024C       Winapi.Dwmapi.$unwind$_ZN6Winapi6Dwmapi14initializationEv
 0003:000000AC       Winapi.Dwmapi..1
 0001:00003000       Winapi.Dwmapi.Finalization
 0001:00003010       Winapi.Dwmapi.Winapi.Dwmapi
 0001:00003C20       Winapi.FlatSB.Finalization
 0001:00003C30       Winapi.FlatSB.Winapi.FlatSB
 0001:00002220       Winapi.ImageHlp.Finalization
 0001:00002230       Winapi.ImageHlp.Winapi.ImageHlp
 0005:000002C4       Winapi.Imm.$pdata$_ZN6Winapi3Imm12FinalizationEv
 0005:000002D0       Winapi.Imm.$pdata$_ZN6Winapi3Imm14initializationEv
 0002:00000240       Winapi.Imm.$unwind$_ZN6Winapi3Imm12FinalizationEv
 0002:00000244       Winapi.Imm.$unwind$_ZN6Winapi3Imm14initializationEv
 0003:000000A8       Winapi.Imm..1
 0001:00002F60       Winapi.Imm.Finalization
 0001:00002F70       Winapi.Imm.Winapi.Imm
 0005:000001D4       Winapi.IpExport.$pdata$_ZN6Winapi8Ipexport12FinalizationEv
 0005:000001E0       Winapi.IpExport.$pdata$_ZN6Winapi8Ipexport14initializationEv
 0002:000001F0       Winapi.IpExport.$unwind$_ZN6Winapi8Ipexport12FinalizationEv
 0002:000001F4       Winapi.IpExport.$unwind$_ZN6Winapi8Ipexport14initializationEv
 0003:00000080       Winapi.IpExport..1
 0001:000029F0       Winapi.IpExport.Finalization
 0001:00002A00       Winapi.IpExport.Winapi.IpExport
 0005:000002AC       Winapi.KnownFolders.$pdata$_ZN6Winapi12Knownfolders12FinalizationEv
 0005:000002B8       Winapi.KnownFolders.$pdata$_ZN6Winapi12Knownfolders14initializationEv
 0002:00000238       Winapi.KnownFolders.$unwind$_ZN6Winapi12Knownfolders12FinalizationEv
 0002:0000023C       Winapi.KnownFolders.$unwind$_ZN6Winapi12Knownfolders14initializationEv
 0003:000000A4       Winapi.KnownFolders..1
 0001:00002B30       Winapi.KnownFolders.Finalization
 0001:00002B40       Winapi.KnownFolders.Winapi.KnownFolders
 0005:00000144       Winapi.Messages.$pdata$_ZN6Winapi8Messages12FinalizationEv
 0005:00000150       Winapi.Messages.$pdata$_ZN6Winapi8Messages14initializationEv
 0002:000001BC       Winapi.Messages.$unwind$_ZN6Winapi8Messages12FinalizationEv
 0002:000001C0       Winapi.Messages.$unwind$_ZN6Winapi8Messages14initializationEv
 0003:00000060       Winapi.Messages..1
 0001:000021E0       Winapi.Messages.Finalization
 0001:000021F0       Winapi.Messages.Winapi.Messages
 0005:000003B4       Winapi.MsCTF.$pdata$_ZN6Winapi5Msctf12FinalizationEv
 0005:000003C0       Winapi.MsCTF.$pdata$_ZN6Winapi5Msctf14initializationEv
 0005:000003A8       Winapi.MsCTF.$pdata$_ZN6Winapi5Msctf9DoneMSCTFEv
 0005:0000039C       Winapi.MsCTF.$pdata$_ZN6Winapi5Msctf9InitMSCTFEv
 0002:000002A0       Winapi.MsCTF.$unwind$_ZN6Winapi5Msctf12FinalizationEv
 0002:000002A8       Winapi.MsCTF.$unwind$_ZN6Winapi5Msctf14initializationEv
 0002:00000298       Winapi.MsCTF.$unwind$_ZN6Winapi5Msctf9DoneMSCTFEv
 0002:00000290       Winapi.MsCTF.$unwind$_ZN6Winapi5Msctf9InitMSCTFEv
 0003:000000CC       Winapi.MsCTF..1
 0001:00003DA0       Winapi.MsCTF.DoneMSCTF
 0001:00003DC0       Winapi.MsCTF.Finalization
 0001:00003D50       Winapi.MsCTF.InitMSCTF
 0002:00000288       Winapi.MsCTF.MsCTFHandle
 0001:00003DE0       Winapi.MsCTF.Winapi.MsCTF
 0005:000003CC       Winapi.MsInkAut.$pdata$_ZN6Winapi8Msinkaut12FinalizationEv
 0005:000003D8       Winapi.MsInkAut.$pdata$_ZN6Winapi8Msinkaut14initializationEv
 0002:000002B0       Winapi.MsInkAut.$unwind$_ZN6Winapi8Msinkaut12FinalizationEv
 0002:000002B4       Winapi.MsInkAut.$unwind$_ZN6Winapi8Msinkaut14initializationEv
 0003:000000D0       Winapi.MsInkAut..1
 0001:00003E00       Winapi.MsInkAut.Finalization
 0001:00003E10       Winapi.MsInkAut.Winapi.MsInkAut
 0001:00002AF0       Winapi.MSXMLIntf.Finalization
 0001:00002B00       Winapi.MSXMLIntf.Winapi.MSXMLIntf
 0001:00002EA0       Winapi.MultiMon.Finalization
 0001:00002EB0       Winapi.MultiMon.Winapi.MultiMon
 0005:0000024C       Winapi.ObjectArray.$pdata$_ZN6Winapi11Objectarray12FinalizationEv
 0005:00000258       Winapi.ObjectArray.$pdata$_ZN6Winapi11Objectarray14initializationEv
 0002:00000218       Winapi.ObjectArray.$unwind$_ZN6Winapi11Objectarray12FinalizationEv
 0002:0000021C       Winapi.ObjectArray.$unwind$_ZN6Winapi11Objectarray14initializationEv
 0003:00000094       Winapi.ObjectArray..1
 0001:00002A90       Winapi.ObjectArray.Finalization
 0001:00002AA0       Winapi.ObjectArray.Winapi.ObjectArray
 0005:000003E4       Winapi.PenInputPanel.$pdata$_ZN6Winapi13Peninputpanel12FinalizationEv
 0005:000003F0       Winapi.PenInputPanel.$pdata$_ZN6Winapi13Peninputpanel14initializationEv
 0002:000002B8       Winapi.PenInputPanel.$unwind$_ZN6Winapi13Peninputpanel12FinalizationEv
 0002:000002BC       Winapi.PenInputPanel.$unwind$_ZN6Winapi13Peninputpanel14initializationEv
 0003:000000D4       Winapi.PenInputPanel..1
 0001:00003E20       Winapi.PenInputPanel.Finalization
 0001:00003E30       Winapi.PenInputPanel.Winapi.PenInputPanel
 0005:0000027C       Winapi.PropSys.$pdata$_ZN6Winapi7Propsys12FinalizationEv
 0005:00000288       Winapi.PropSys.$pdata$_ZN6Winapi7Propsys14initializationEv
 0002:00000228       Winapi.PropSys.$unwind$_ZN6Winapi7Propsys12FinalizationEv
 0002:0000022C       Winapi.PropSys.$unwind$_ZN6Winapi7Propsys14initializationEv
 0003:0000009C       Winapi.PropSys..1
 0001:00002AD0       Winapi.PropSys.Finalization
 0001:00002AE0       Winapi.PropSys.Winapi.PropSys
 0005:0000015C       Winapi.PsAPI.$pdata$_ZN6Winapi5Psapi12FinalizationEv
 0005:00000168       Winapi.PsAPI.$pdata$_ZN6Winapi5Psapi14initializationEv
 0002:000001C4       Winapi.PsAPI.$unwind$_ZN6Winapi5Psapi12FinalizationEv
 0002:000001CC       Winapi.PsAPI.$unwind$_ZN6Winapi5Psapi14initializationEv
 0003:00000064       Winapi.PsAPI..1
 0001:00002260       Winapi.PsAPI.Finalization
 0003:00000068       Winapi.PsAPI.hPSAPI
 0001:000022A0       Winapi.PsAPI.Winapi.PsAPI
 0005:000001A4       Winapi.Qos.$pdata$_ZN6Winapi3Qos12FinalizationEv
 0005:000001B0       Winapi.Qos.$pdata$_ZN6Winapi3Qos14initializationEv
 0002:000001E0       Winapi.Qos.$unwind$_ZN6Winapi3Qos12FinalizationEv
 0002:000001E4       Winapi.Qos.$unwind$_ZN6Winapi3Qos14initializationEv
 0003:00000078       Winapi.Qos..1
 0001:000029B0       Winapi.Qos.Finalization
 0001:000029C0       Winapi.Qos.Winapi.Qos
 0005:00000204       Winapi.RegStr.$pdata$_ZN6Winapi6Regstr12FinalizationEv
 0005:00000210       Winapi.RegStr.$pdata$_ZN6Winapi6Regstr14initializationEv
 0002:00000200       Winapi.RegStr.$unwind$_ZN6Winapi6Regstr12FinalizationEv
 0002:00000204       Winapi.RegStr.$unwind$_ZN6Winapi6Regstr14initializationEv
 0003:00000088       Winapi.RegStr..1
 0001:00002A30       Winapi.RegStr.Finalization
 0001:00002A40       Winapi.RegStr.Winapi.RegStr
 0005:0000033C       Winapi.RichEdit.$pdata$_ZN6Winapi8Richedit12FinalizationEv
 0005:00000348       Winapi.RichEdit.$pdata$_ZN6Winapi8Richedit14initializationEv
 0002:00000268       Winapi.RichEdit.$unwind$_ZN6Winapi8Richedit12FinalizationEv
 0002:0000026C       Winapi.RichEdit.$unwind$_ZN6Winapi8Richedit14initializationEv
 0003:000000BC       Winapi.RichEdit..1
 0001:000035E0       Winapi.RichEdit.Finalization
 0001:000035F0       Winapi.RichEdit.Winapi.RichEdit
 0005:000001EC       Winapi.ShellAPI.$pdata$_ZN6Winapi8Shellapi12FinalizationEv
 0005:000001F8       Winapi.ShellAPI.$pdata$_ZN6Winapi8Shellapi14initializationEv
 0002:000001F8       Winapi.ShellAPI.$unwind$_ZN6Winapi8Shellapi12FinalizationEv
 0002:000001FC       Winapi.ShellAPI.$unwind$_ZN6Winapi8Shellapi14initializationEv
 0003:00000084       Winapi.ShellAPI..1
 0001:00002A10       Winapi.ShellAPI.Finalization
 0001:00002A20       Winapi.ShellAPI.Winapi.ShellAPI
 0005:0000036C       Winapi.ShellScaling.$pdata$_ZN6Winapi12Shellscaling12FinalizationEv
 0005:00000378       Winapi.ShellScaling.$pdata$_ZN6Winapi12Shellscaling14initializationEv
 0002:00000278       Winapi.ShellScaling.$unwind$_ZN6Winapi12Shellscaling12FinalizationEv
 0002:0000027C       Winapi.ShellScaling.$unwind$_ZN6Winapi12Shellscaling14initializationEv
 0003:000000C4       Winapi.ShellScaling..1
 0001:00003C00       Winapi.ShellScaling.Finalization
 0001:00003C10       Winapi.ShellScaling.Winapi.ShellScaling
 0001:00002240       Winapi.SHFolder.Finalization
 0001:00002250       Winapi.SHFolder.Winapi.SHFolder
 0005:00000294       Winapi.ShlObj.$pdata$_ZN6Winapi6Shlobj12FinalizationEv
 0005:000002A0       Winapi.ShlObj.$pdata$_ZN6Winapi6Shlobj14initializationEv
 0002:00000230       Winapi.ShlObj.$unwind$_ZN6Winapi6Shlobj12FinalizationEv
 0002:00000234       Winapi.ShlObj.$unwind$_ZN6Winapi6Shlobj14initializationEv
 0003:000000A0       Winapi.ShlObj..1
 0001:00002B10       Winapi.ShlObj.Finalization
 0001:00002B20       Winapi.ShlObj.Winapi.ShlObj
 0005:00000264       Winapi.StructuredQueryCondition.$pdata$_ZN6Winapi24Structuredquerycondition12FinalizationEv
 0005:00000270       Winapi.StructuredQueryCondition.$pdata$_ZN6Winapi24Structuredquerycondition14initializationEv
 0002:00000220       Winapi.StructuredQueryCondition.$unwind$_ZN6Winapi24Structuredquerycondition12FinalizationEv
 0002:00000224       Winapi.StructuredQueryCondition.$unwind$_ZN6Winapi24Structuredquerycondition14initializationEv
 0003:00000098       Winapi.StructuredQueryCondition..1
 0001:00002AB0       Winapi.StructuredQueryCondition.Finalization
 0001:00002AC0       Winapi.StructuredQueryCondition.Winapi.StructuredQueryCondition
 0005:00000384       Winapi.TpcShrd.$pdata$_ZN6Winapi7Tpcshrd12FinalizationEv
 0005:00000390       Winapi.TpcShrd.$pdata$_ZN6Winapi7Tpcshrd14initializationEv
 0002:00000280       Winapi.TpcShrd.$unwind$_ZN6Winapi7Tpcshrd12FinalizationEv
 0002:00000284       Winapi.TpcShrd.$unwind$_ZN6Winapi7Tpcshrd14initializationEv
 0003:000000C8       Winapi.TpcShrd..1
 0001:00003D30       Winapi.TpcShrd.Finalization
 0001:00003D40       Winapi.TpcShrd.Winapi.TpcShrd
 0005:00000234       Winapi.UrlMon.$pdata$_ZN6Winapi6Urlmon12FinalizationEv
 0005:00000240       Winapi.UrlMon.$pdata$_ZN6Winapi6Urlmon14initializationEv
 0002:00000210       Winapi.UrlMon.$unwind$_ZN6Winapi6Urlmon12FinalizationEv
 0002:00000214       Winapi.UrlMon.$unwind$_ZN6Winapi6Urlmon14initializationEv
 0003:00000090       Winapi.UrlMon..1
 0001:00002A70       Winapi.UrlMon.Finalization
 0001:00002A80       Winapi.UrlMon.Winapi.UrlMon
 0001:00002FE0       Winapi.UxTheme.Finalization
 0001:00002FF0       Winapi.UxTheme.Winapi.UxTheme
 0001:00002970       Winapi.Wincodec.Finalization
 0001:00002980       Winapi.Wincodec.Winapi.Wincodec
 0005:000000FC       Winapi.Windows.$pdata$_ZN6Winapi7Windows10ExtTextOutEP5HDC__iiiPN6System5Types5TRectENS3_13UnicodeStringEiPi
 0005:0000012C       Winapi.Windows.$pdata$_ZN6Winapi7Windows12FinalizationEv
 0005:00000138       Winapi.Windows.$pdata$_ZN6Winapi7Windows14initializationEv
 0005:00000120       Winapi.Windows.$pdata$_ZN6Winapi7Windows15InitVersionInfoEv
 0005:00000108       Winapi.Windows.$pdata$_ZN6Winapi7Windows20GetTextExtentPoint32EP5HDC__N6System13UnicodeStringEiRNS3_5Types5TSizeE
 0005:00000114       Winapi.Windows.$pdata$_ZN6Winapi7Windows8MakeLongEtt
 0002:00000184       Winapi.Windows.$unwind$_ZN6Winapi7Windows10ExtTextOutEP5HDC__iiiPN6System5Types5TRectENS3_13UnicodeStringEiPi
 0002:000001AC       Winapi.Windows.$unwind$_ZN6Winapi7Windows12FinalizationEv
 0002:000001B4       Winapi.Windows.$unwind$_ZN6Winapi7Windows14initializationEv
 0002:000001A4       Winapi.Windows.$unwind$_ZN6Winapi7Windows15InitVersionInfoEv
 0002:00000194       Winapi.Windows.$unwind$_ZN6Winapi7Windows20GetTextExtentPoint32EP5HDC__N6System13UnicodeStringEiRNS3_5Types5TSizeE
 0002:000001A0       Winapi.Windows.$unwind$_ZN6Winapi7Windows8MakeLongEtt
 0003:00000050       Winapi.Windows..2
 0001:00001D50       Winapi.Windows.ClearCommError
 0001:00001D60       Winapi.Windows.CloseHandle
 0001:00001FE0       Winapi.Windows.CreateCaret
 0001:00001D70       Winapi.Windows.CreateFile
 0001:00001E40       Winapi.Windows.CreateFontIndirect
 0001:00001FF0       Winapi.Windows.DefWindowProc
 0001:00001E50       Winapi.Windows.DeleteObject
 0001:00002000       Winapi.Windows.DestroyCaret
 0001:00002010       Winapi.Windows.DrawText
 0001:00001D80       Winapi.Windows.EscapeCommFunction
 0001:00001E60       Winapi.Windows.ExtTextOut
 0001:00001E80       Winapi.Windows.ExtTextOut
 0001:00001E70       Winapi.Windows.ExtTextOutA
 0001:00002180       Winapi.Windows.Finalization
 0001:00001D90       Winapi.Windows.FreeLibrary
 0001:00001EF0       Winapi.Windows.GetClipBox
 0001:00001DA0       Winapi.Windows.GetCommModemStatus
 0001:00002020       Winapi.Windows.GetDC
 0001:00002030       Winapi.Windows.GetKeyState
 0001:00001F00       Winapi.Windows.GetObject
 0001:00001F10       Winapi.Windows.GetStockObject
 0001:00001F30       Winapi.Windows.GetTextExtentPoint32
 0001:00001F20       Winapi.Windows.GetTextExtentPoint32
 0001:00001F70       Winapi.Windows.GetTextMetrics
 0001:00001DB0       Winapi.Windows.GetTickCount
 0001:00001DC0       Winapi.Windows.GetVersionEx
 0003:00000058       Winapi.Windows.HtmlHelpModule
 0001:00002130       Winapi.Windows.InitVersionInfo
 0001:00002040       Winapi.Windows.InvalidateRect
 0001:00002050       Winapi.Windows.KillTimer
 0001:00002120       Winapi.Windows.MakeLong
 0001:00002060       Winapi.Windows.MessageBeep
 0001:00001DD0       Winapi.Windows.MulDiv
 0001:00002070       Winapi.Windows.OffsetRect
 0001:00002080       Winapi.Windows.PeekMessage
 0001:00002090       Winapi.Windows.PostMessage
 0001:00001DE0       Winapi.Windows.PurgeComm
 0001:00001DF0       Winapi.Windows.ReadFile
 0001:000020A0       Winapi.Windows.ReleaseDC
 0001:000020B0       Winapi.Windows.ScrollWindowEx
 0001:00001F80       Winapi.Windows.SelectObject
 0001:000020C0       Winapi.Windows.SendMessage
 0001:00001F90       Winapi.Windows.SetBkColor
 0001:00001FA0       Winapi.Windows.SetBkMode
 0001:000020D0       Winapi.Windows.SetCaretPos
 0001:00001E00       Winapi.Windows.SetCommState
 0001:00001E10       Winapi.Windows.SetCommTimeouts
 0001:000020E0       Winapi.Windows.SetScrollPos
 0001:000020F0       Winapi.Windows.SetScrollRange
 0001:00001FB0       Winapi.Windows.SetTextAlign
 0001:00001FC0       Winapi.Windows.SetTextColor
 0001:00002100       Winapi.Windows.SetTimer
 0001:00001E20       Winapi.Windows.SetupComm
 0001:00001FD0       Winapi.Windows.SetViewportOrgEx
 0001:00002110       Winapi.Windows.ShowCaret
 0002:00000178       Winapi.Windows.Win32MajorVersion
 0002:0000017C       Winapi.Windows.Win32MinorVersion
 0002:00000180       Winapi.Windows.Win32Platform
 0001:000021B0       Winapi.Windows.Winapi.Windows
 0001:00001E30       Winapi.Windows.WriteFile
 0005:0000021C       Winapi.WinInet.$pdata$_ZN6Winapi7Wininet12FinalizationEv
 0005:00000228       Winapi.WinInet.$pdata$_ZN6Winapi7Wininet14initializationEv
 0002:00000208       Winapi.WinInet.$unwind$_ZN6Winapi7Wininet12FinalizationEv
 0002:0000020C       Winapi.WinInet.$unwind$_ZN6Winapi7Wininet14initializationEv
 0003:0000008C       Winapi.WinInet..1
 0001:00002A50       Winapi.WinInet.Finalization
 0001:00002A60       Winapi.WinInet.Winapi.WinInet
 0005:000001BC       Winapi.Winsock2.$pdata$_ZN6Winapi8Winsock212FinalizationEv
 0005:000001C8       Winapi.Winsock2.$pdata$_ZN6Winapi8Winsock214initializationEv
 0002:000001E8       Winapi.Winsock2.$unwind$_ZN6Winapi8Winsock212FinalizationEv
 0002:000001EC       Winapi.Winsock2.$unwind$_ZN6Winapi8Winsock214initializationEv
 0003:0000007C       Winapi.Winsock2..1
 0001:000029D0       Winapi.Winsock2.Finalization
 0001:000029E0       Winapi.Winsock2.Winapi.Winsock2
 0005:00000324       Winapi.WinSpool.$pdata$_ZN6Winapi8Winspool12FinalizationEv
 0005:00000330       Winapi.WinSpool.$pdata$_ZN6Winapi8Winspool14initializationEv
 0002:00000260       Winapi.WinSpool.$unwind$_ZN6Winapi8Winspool12FinalizationEv
 0002:00000264       Winapi.WinSpool.$unwind$_ZN6Winapi8Winspool14initializationEv
 0003:000000B8       Winapi.WinSpool..1
 0001:000035A0       Winapi.WinSpool.Finalization
 0001:000035B0       Winapi.WinSpool.Winapi.WinSpool


  Address             Publics by Value

 0001:00000000       System.AllocMem
 0001:00000010       System.@FreeMem
 0001:00000020       System.@_IOTest
 0001:00000030       System.Move
 0001:00000040       System.Frac
 0001:00000050       System.Cos
 0001:00000060       System.Sin
 0001:00000070       System.Sqrt
 0001:00000080       System.@Round
 0001:00000090       System.@Trunc
 0001:000000A0       System.@ResetText
 0001:000000B0       System.@RewritText
 0001:000000C0       System.@Close
 0001:000000D0       System.@FillChar
 0001:000000E0       System.TObject.NewInstance
 0001:000000F0       System.TObject.FreeInstance
 0001:00000100       System.TObject.CPP_ABI_1
 0001:00000110       System.TObject.CPP_ABI_2
 0001:00000120       System.TObject.CPP_ABI_3
 0001:00000130       System.TObject.Create
 0001:00000140       System.TObject.Free
 0001:00000150       System.TObject.Equals
 0001:00000160       System.TObject.GetHashCode
 0001:00000170       System.@IsClass
 0001:00000180       System.@AsClass
 0001:00000190       System.@FindDynaInst
 0001:000001A0       System.TObject.SafeCallException
 0001:000001B0       System.TObject.ToString
 0001:000001C0       System.TObject.DefaultHandler
 0001:000001D0       System.TObject.AfterConstruction
 0001:000001E0       System.TObject.BeforeDestruction
 0001:000001F0       System.TObject.Dispatch
 0001:00000200       System.@ClassCreate
 0001:00000210       System.@ClassDestroy
 0001:00000220       System.@AfterConstruction
 0001:00000230       System.@BeforeDestruction
 0001:00000240       System.@DelphiExceptionHandler
 0001:00000250       System.@RaiseExcept
 0001:00000260       System.@RaiseAgain
 0001:00000270       System.@DestroyException
 0001:00000280       System.@DoneExcept
 0001:00000290       System.@PackageLoad
 0001:000002A0       System.@PackageUnload
 0001:000002B0       System.@RunError
 0001:000002C0       System.@UStrClr
 0001:000002D0       System.@LStrClr
 0001:000002E0       System.@UStrArrayClr
 0001:000002F0       System.@UStrAddRef
 0001:00000300       System.@LStrAddRef
 0001:00000310       System.@UStrAsg
 0001:00000320       System.@UStrLen
 0001:00000330       System.@LStrLen
 0001:00000340       System.@PCharLen
 0001:00000350       System.@UniqueStringA
 0001:00000360       System.@LStrToPChar
 0001:00000370       System.@LStrFromUStr
 0001:00000380       System.@UStrToPWChar
 0001:00000390       System.@UStrFromWArray
 0001:000003A0       System.@UStrCat
 0001:000003B0       System.@UStrCatN
 0001:000003C0       System.@UStrEqual
 0001:000003D0       System.RegisterModule
 0001:000003E0       System.UnregisterModule
 0001:000003F0       System.Finalization
 0001:00000400       System.System
 0001:00000410       SysInit.FreeLibrary
 0001:00000420       SysInit.LocalAlloc
 0001:00000430       SysInit.LocalFree
 0001:00000440       SysInit.TlsAlloc
 0001:00000450       SysInit.TlsFree
 0001:00000460       SysInit.TlsGetValue
 0001:00000470       SysInit.TlsSetValue
 0001:00000480       SysInit.GetLastError
 0001:00000490       SysInit.LoadLibraryA
 0001:000004A0       SysInit.RaiseException
 0001:000004B0       SysInit.GetProcAddress
 0001:000004C0       SysInit.AllocTlsBuffer
 0001:000004E0       SysInit.GetTlsSize
 0001:000004F0       SysInit.InitThreadTLS
 0001:00000540       SysInit.InitProcessTLS
 0001:00000580       SysInit.ExitThreadTLS
 0001:000005D0       SysInit.ExitProcessTLS
 0001:00000600       SysInit.InitializeModule
 0001:00000620       SysInit.UninitializeModule
 0001:00000660       SysInit.@_dbkDummyProc
 0001:00000670       SysInit.@_dbkFCallArgs
 0001:00000A70       SysInit.@_dbk_fcall_wrapper
 0001:00000DC0       SysInit.@InitPkg
 0001:00000E40       SysInit.@PackageLoad
 0001:00000E60       SysInit.@PackageUnload
 0001:00000E80       SysInit..text.delayhlp
 0001:00000E80       SysInit.@_delayLoadHelper2
 0001:00001160       SysInit.@_FUnloadDelayLoadedDLL2
 0001:00001810       SysInit.@_HrLoadAllImportsForDll
 0001:00001970       SysInit.ShutdownDelayHelp2
 0001:00001CA0       SysInit.Finalization
 0001:00001CC0       SysInit.SysInit
 0001:00001CD0       System.Types.Finalization
 0001:00001CE0       System.Types.System.Types
 0001:00001CF0       System.UITypes.Finalization
 0001:00001D00       System.UITypes.System.UITypes
 0001:00001D50       Winapi.Windows.ClearCommError
 0001:00001D60       Winapi.Windows.CloseHandle
 0001:00001D70       Winapi.Windows.CreateFile
 0001:00001D80       Winapi.Windows.EscapeCommFunction
 0001:00001D90       Winapi.Windows.FreeLibrary
 0001:00001DA0       Winapi.Windows.GetCommModemStatus
 0001:00001DB0       Winapi.Windows.GetTickCount
 0001:00001DC0       Winapi.Windows.GetVersionEx
 0001:00001DD0       Winapi.Windows.MulDiv
 0001:00001DE0       Winapi.Windows.PurgeComm
 0001:00001DF0       Winapi.Windows.ReadFile
 0001:00001E00       Winapi.Windows.SetCommState
 0001:00001E10       Winapi.Windows.SetCommTimeouts
 0001:00001E20       Winapi.Windows.SetupComm
 0001:00001E30       Winapi.Windows.WriteFile
 0001:00001E40       Winapi.Windows.CreateFontIndirect
 0001:00001E50       Winapi.Windows.DeleteObject
 0001:00001E60       Winapi.Windows.ExtTextOut
 0001:00001E70       Winapi.Windows.ExtTextOutA
 0001:00001E80       Winapi.Windows.ExtTextOut
 0001:00001EF0       Winapi.Windows.GetClipBox
 0001:00001F00       Winapi.Windows.GetObject
 0001:00001F10       Winapi.Windows.GetStockObject
 0001:00001F20       Winapi.Windows.GetTextExtentPoint32
 0001:00001F30       Winapi.Windows.GetTextExtentPoint32
 0001:00001F70       Winapi.Windows.GetTextMetrics
 0001:00001F80       Winapi.Windows.SelectObject
 0001:00001F90       Winapi.Windows.SetBkColor
 0001:00001FA0       Winapi.Windows.SetBkMode
 0001:00001FB0       Winapi.Windows.SetTextAlign
 0001:00001FC0       Winapi.Windows.SetTextColor
 0001:00001FD0       Winapi.Windows.SetViewportOrgEx
 0001:00001FE0       Winapi.Windows.CreateCaret
 0001:00001FF0       Winapi.Windows.DefWindowProc
 0001:00002000       Winapi.Windows.DestroyCaret
 0001:00002010       Winapi.Windows.DrawText
 0001:00002020       Winapi.Windows.GetDC
 0001:00002030       Winapi.Windows.GetKeyState
 0001:00002040       Winapi.Windows.InvalidateRect
 0001:00002050       Winapi.Windows.KillTimer
 0001:00002060       Winapi.Windows.MessageBeep
 0001:00002070       Winapi.Windows.OffsetRect
 0001:00002080       Winapi.Windows.PeekMessage
 0001:00002090       Winapi.Windows.PostMessage
 0001:000020A0       Winapi.Windows.ReleaseDC
 0001:000020B0       Winapi.Windows.ScrollWindowEx
 0001:000020C0       Winapi.Windows.SendMessage
 0001:000020D0       Winapi.Windows.SetCaretPos
 0001:000020E0       Winapi.Windows.SetScrollPos
 0001:000020F0       Winapi.Windows.SetScrollRange
 0001:00002100       Winapi.Windows.SetTimer
 0001:00002110       Winapi.Windows.ShowCaret
 0001:00002120       Winapi.Windows.MakeLong
 0001:00002130       Winapi.Windows.InitVersionInfo
 0001:00002180       Winapi.Windows.Finalization
 0001:000021B0       Winapi.Windows.Winapi.Windows
 0001:000021E0       Winapi.Messages.Finalization
 0001:000021F0       Winapi.Messages.Winapi.Messages
 0001:00002200       System.SysConst.Finalization
 0001:00002210       System.SysConst.System.SysConst
 0001:00002220       Winapi.ImageHlp.Finalization
 0001:00002230       Winapi.ImageHlp.Winapi.ImageHlp
 0001:00002240       Winapi.SHFolder.Finalization
 0001:00002250       Winapi.SHFolder.Winapi.SHFolder
 0001:00002260       Winapi.PsAPI.Finalization
 0001:000022A0       Winapi.PsAPI.Winapi.PsAPI
 0001:000022B0       System.RTLConsts.Finalization
 0001:000022C0       System.RTLConsts.System.RTLConsts
 0001:000022D0       System.Character.Finalization
 0001:000022E0       System.Character.System.Character
 0001:000022F0       System.Internal.ExcUtils.Finalization
 0001:00002300       System.Internal.ExcUtils.System.Internal.ExcUtils
 0001:00002310       System.SysUtils.TLanguages.Create@
 0001:00002320       System.SysUtils.TEncoding.Create@
 0001:00002330       System.SysUtils.TOSVersion.Destroy@
 0001:00002340       System.SysUtils.StrLen
 0001:00002350       System.SysUtils.StrPCopy
 0001:00002360       System.SysUtils.StrAlloc
 0001:00002370       System.SysUtils.Format
 0001:00002380       System.SysUtils.Exception.Create
 0001:00002390       System.SysUtils.Exception.Destroy
 0001:000023A0       System.SysUtils.Exception.GetBaseException
 0001:000023B0       System.SysUtils.Exception.RaisingException
 0001:000023C0       System.SysUtils.Exception.ToString
 0001:000023D0       System.SysUtils.Exception.Create@
 0001:000023E0       System.SysUtils.Exception.Destroy@
 0001:000023F0       System.SysUtils.TLanguages.Destroy@
 0001:00002400       System.SysUtils.SafeLoadLibrary
 0001:00002410       System.SysUtils.TEncoding.Destroy@
 0001:00002420       System.SysUtils.TOSVersion.Create@
 0001:00002430       System.SysUtils.Finalization
 0001:00002440       System.SysUtils.System.SysUtils
 0001:00002450       System.VarUtils.Finalization
 0001:00002460       System.VarUtils.System.VarUtils
 0001:00002470       System.Variants.Finalization
 0001:00002480       System.Variants.System.Variants
 0001:00002490       Winapi.ActiveX.Finalization
 0001:000024A0       Winapi.ActiveX.Winapi.ActiveX
 0001:000024B0       System.TypInfo.Finalization
 0001:000024C0       System.TypInfo.System.TypInfo
 0001:000024D0       System.Hash.Finalization
 0001:000024E0       System.Hash.System.Hash
 0001:000024F0       System.Math.ArcTan2
 0001:00002500       System.Math.Finalization
 0001:00002510       System.Math.System.Math
 0001:00002520       System.Generics.Defaults.TStringComparer.Create@
 0001:00002530       System.Generics.Defaults.TIStringComparer.Create@
 0001:00002540       System.Generics.Defaults.TStringComparer.Destroy@
 0001:00002550       System.Generics.Defaults.TIStringComparer.Destroy@
 0001:00002560       System.Generics.Defaults.Finalization
 0001:00002570       System.Generics.Defaults.System.Generics.Defaults
 0001:00002580       System.Generics.Collections.Finalization
 0001:00002590       System.Generics.Collections.System.Generics.Collections
 0001:000025A0       System.Rtti.TValue.Destroy@
 0001:000025B0       System.Rtti.TValue.Create@
 0001:000025C0       System.Rtti.Finalization
 0001:000025D0       System.Rtti.System.Rtti
 0001:000025E0       System.TimeSpan.TTimeSpan.Destroy@
 0001:000025F0       System.TimeSpan.TTimeSpan.Create@
 0001:00002600       System.TimeSpan.Finalization
 0001:00002610       System.TimeSpan.System.TimeSpan
 0001:00002620       System.Diagnostics.Finalization
 0001:00002630       System.Diagnostics.System.Diagnostics
 0001:00002640       System.Classes.TObserverMapping.Create@
 0001:00002650       System.Classes.TComponent.Destroy@
 0001:00002660       System.Classes.TBinaryWriter.Create@
 0001:00002670       System.Classes.Rect
 0001:00002680       System.Classes.RegisterClasses
 0001:00002690       System.Classes.RegisterComponents
 0001:000026A0       System.Classes.TFieldsCache.Create@
 0001:000026B0       System.Classes.TFieldsCache.Destroy@
 0001:000026C0       System.Classes.TList.Add
 0001:000026D0       System.Classes.TList.Expand
 0001:000026E0       System.Classes.TList.Get
 0001:000026F0       System.Classes.TList.Put
 0001:00002700       System.Classes.TPersistent.Destroy
 0001:00002710       System.Classes.TPersistent.Assign
 0001:00002720       System.Classes.TPersistent.AssignTo
 0001:00002730       System.Classes.TPersistent.DefineProperties
 0001:00002740       System.Classes.TReader.ReadBoolean
 0001:00002750       System.Classes.TWriter.WriteBoolean
 0001:00002760       System.Classes.TThread.Create@
 0001:00002770       System.Classes.TThread.Destroy@
 0001:00002780       System.Classes.TComponent.Create
 0001:00002790       System.Classes.TComponent.Destroy
 0001:000027A0       System.Classes.TComponent.AsyncSchedule
 0001:000027B0       System.Classes.TComponent.BeforeDestruction
 0001:000027C0       System.Classes.TComponent.Notification
 0001:000027D0       System.Classes.TComponent.DefineProperties
 0001:000027E0       System.Classes.TComponent.Loaded
 0001:000027F0       System.Classes.TComponent.ReadState
 0001:00002800       System.Classes.TComponent.WriteState
 0001:00002810       System.Classes.TComponent.ValidateRename
 0001:00002820       System.Classes.TComponent.Create@
 0001:00002830       System.Classes.TComponent.SetName
 0001:00002840       System.Classes.TComponent.GetComponent
 0001:00002850       System.Classes.TComponent.GetComponentCount
 0001:00002860       System.Classes.TComponent.GetObservers
 0001:00002870       System.Classes.TComponent.UpdateAction
 0001:00002880       System.Classes.TComponent.CanObserve
 0001:00002890       System.Classes.TComponent.ObserverAdded
 0001:000028A0       System.Classes.TComponent.SafeCallException
 0001:000028B0       System.Classes.TComponent.UpdateRegistry
 0001:000028C0       System.Classes.TComponent.QueryInterface
 0001:000028D0       System.Classes.AllocateHWnd
 0001:000028E0       System.Classes.DeallocateHWnd
 0001:000028F0       System.Classes.TBinaryWriter.Destroy@
 0001:00002900       System.Classes.TLoginCredentialService.Create@
 0001:00002910       System.Classes.TLoginCredentialService.Destroy@
 0001:00002920       System.Classes.TObserverMapping.Destroy@
 0001:00002930       System.Classes.TBaseAsyncResult.Create@
 0001:00002940       System.Classes.TBaseAsyncResult.Destroy@
 0001:00002950       System.Classes.Finalization
 0001:00002960       System.Classes.System.Classes
 0001:00002970       Winapi.Wincodec.Finalization
 0001:00002980       Winapi.Wincodec.Winapi.Wincodec
 0001:00002990       Winapi.CommCtrl.Finalization
 0001:000029A0       Winapi.CommCtrl.Winapi.CommCtrl
 0001:000029B0       Winapi.Qos.Finalization
 0001:000029C0       Winapi.Qos.Winapi.Qos
 0001:000029D0       Winapi.Winsock2.Finalization
 0001:000029E0       Winapi.Winsock2.Winapi.Winsock2
 0001:000029F0       Winapi.IpExport.Finalization
 0001:00002A00       Winapi.IpExport.Winapi.IpExport
 0001:00002A10       Winapi.ShellAPI.Finalization
 0001:00002A20       Winapi.ShellAPI.Winapi.ShellAPI
 0001:00002A30       Winapi.RegStr.Finalization
 0001:00002A40       Winapi.RegStr.Winapi.RegStr
 0001:00002A50       Winapi.WinInet.Finalization
 0001:00002A60       Winapi.WinInet.Winapi.WinInet
 0001:00002A70       Winapi.UrlMon.Finalization
 0001:00002A80       Winapi.UrlMon.Winapi.UrlMon
 0001:00002A90       Winapi.ObjectArray.Finalization
 0001:00002AA0       Winapi.ObjectArray.Winapi.ObjectArray
 0001:00002AB0       Winapi.StructuredQueryCondition.Finalization
 0001:00002AC0       Winapi.StructuredQueryCondition.Winapi.StructuredQueryCondition
 0001:00002AD0       Winapi.PropSys.Finalization
 0001:00002AE0       Winapi.PropSys.Winapi.PropSys
 0001:00002AF0       Winapi.MSXMLIntf.Finalization
 0001:00002B00       Winapi.MSXMLIntf.Winapi.MSXMLIntf
 0001:00002B10       Winapi.ShlObj.Finalization
 0001:00002B20       Winapi.ShlObj.Winapi.ShlObj
 0001:00002B30       Winapi.KnownFolders.Finalization
 0001:00002B40       Winapi.KnownFolders.Winapi.KnownFolders
 0001:00002B50       System.Masks.Finalization
 0001:00002B60       System.Masks.System.Masks
 0001:00002B70       System.StrUtils.Finalization
 0001:00002B80       System.StrUtils.System.StrUtils
 0001:00002B90       System.DateUtils.TTimeZone.Create@
 0001:00002BA0       System.DateUtils.TTimeZone.Destroy@
 0001:00002BB0       System.DateUtils.Finalization
 0001:00002BC0       System.DateUtils.System.DateUtils
 0001:00002BD0       System.IOUtils.TPath.Destroy@
 0001:00002BE0       System.IOUtils.TPath.Create@
 0001:00002BF0       System.IOUtils.Finalization
 0001:00002C00       System.IOUtils.System.IOUtils
 0001:00002C10       System.IniFiles.Finalization
 0001:00002C20       System.IniFiles.System.IniFiles
 0001:00002C30       System.Win.Registry.TRegistry.Destroy@
 0001:00002C40       System.Win.Registry.TRegistry.Create@
 0001:00002C50       System.Win.Registry.Finalization
 0001:00002C60       System.Win.Registry.System.Win.Registry
 0001:00002C70       System.UIConsts.Finalization
 0001:00002C80       System.UIConsts.System.UIConsts
 0001:00002C90       Vcl.Consts.Finalization
 0001:00002CA0       Vcl.Consts.Vcl.Consts
 0001:00002CB0       Vcl.Graphics.TWICImage.Create@
 0001:00002CC0       Vcl.Graphics.TWICImage.Destroy@
 0001:00002CD0       Vcl.Graphics.ColorToRGB
 0001:00002CE0       Vcl.Graphics.TFont.Create
 0001:00002CF0       Vcl.Graphics.TFont.Destroy
 0001:00002D00       Vcl.Graphics.TFont.Changed
 0001:00002D10       Vcl.Graphics.TFont.Assign
 0001:00002D20       Vcl.Graphics.TFont.SetColor
 0001:00002D30       Vcl.Graphics.TFont.GetHandle
 0001:00002D40       Vcl.Graphics.TFont.SetHandle
 0001:00002D50       Vcl.Graphics.TFont.GetName
 0001:00002D60       Vcl.Graphics.TFont.SetName
 0001:00002D70       Vcl.Graphics.TFont.GetSize
 0001:00002D80       Vcl.Graphics.TFont.SetSize
 0001:00002D90       Vcl.Graphics.TFont.GetStyle
 0001:00002DA0       Vcl.Graphics.TFont.SetStyle
 0001:00002DB0       Vcl.Graphics.TPen.SetColor
 0001:00002DC0       Vcl.Graphics.TBrush.SetBitmap
 0001:00002DD0       Vcl.Graphics.TBrush.SetColor
 0001:00002DE0       Vcl.Graphics.TBrush.SetStyle
 0001:00002DF0       Vcl.Graphics.TCustomCanvas.TextHeight
 0001:00002E00       Vcl.Graphics.TCustomCanvas.TextWidth
 0001:00002E10       Vcl.Graphics.TCanvas.CopyRect
 0001:00002E20       Vcl.Graphics.TCanvas.SetFont
 0001:00002E30       Vcl.Graphics.TCanvas.SetBrush
 0001:00002E40       Vcl.Graphics.TCanvas.GetHandle
 0001:00002E50       Vcl.Graphics.TCanvas.SetHandle
 0001:00002E60       Vcl.Graphics.TBitmap.Create
 0001:00002E70       Vcl.Graphics.TBitmap.GetCanvas
 0001:00002E80       Vcl.Graphics.Finalization
 0001:00002E90       Vcl.Graphics.Vcl.Graphics
 0001:00002EA0       Winapi.MultiMon.Finalization
 0001:00002EB0       Winapi.MultiMon.Winapi.MultiMon
 0001:00002EC0       System.Contnrs.Finalization
 0001:00002ED0       System.Contnrs.System.Contnrs
 0001:00002EE0       System.ImageList.Finalization
 0001:00002EF0       System.ImageList.System.ImageList
 0001:00002F00       System.Messaging.TMessageManager.Create@
 0001:00002F10       System.Messaging.TMessageManager.UnInitialize@
 0001:00002F20       System.Messaging.Finalization
 0001:00002F30       System.Messaging.System.Messaging
 0001:00002F40       System.Actions.Finalization
 0001:00002F50       System.Actions.System.Actions
 0001:00002F60       Winapi.Imm.Finalization
 0001:00002F70       Winapi.Imm.Winapi.Imm
 0001:00002F80       Vcl.ActnList.Finalization
 0001:00002F90       Vcl.ActnList.Vcl.ActnList
 0001:00002FA0       System.HelpIntfs.Finalization
 0001:00002FB0       System.HelpIntfs.System.HelpIntfs
 0001:00002FC0       System.SyncObjs.Finalization
 0001:00002FD0       System.SyncObjs.System.SyncObjs
 0001:00002FE0       Winapi.UxTheme.Finalization
 0001:00002FF0       Winapi.UxTheme.Winapi.UxTheme
 0001:00003000       Winapi.Dwmapi.Finalization
 0001:00003010       Winapi.Dwmapi.Winapi.Dwmapi
 0001:00003020       System.Win.Crtl.Finalization
 0001:00003030       System.Win.Crtl.System.Win.Crtl
 0001:00003040       System.ZLib.Finalization
 0001:00003050       System.ZLib.System.ZLib
 0001:00003060       Vcl.GraphUtil.Finalization
 0001:00003070       Vcl.GraphUtil.Vcl.GraphUtil
 0001:00003080       Vcl.StdCtrls.TCustomGroupBox.Create@
 0001:00003090       Vcl.StdCtrls.TCustomGroupBox.Destroy@
 0001:000030A0       Vcl.StdCtrls.TCustomLabel.Create
 0001:000030B0       Vcl.StdCtrls.TCustomLabel.GetLabelText
 0001:000030C0       Vcl.StdCtrls.TCustomLabel.Loaded
 0001:000030D0       Vcl.StdCtrls.TCustomLabel.SetAlignment
 0001:000030E0       Vcl.StdCtrls.TCustomLabel.SetAutoSize
 0001:000030F0       Vcl.StdCtrls.TCustomLabel.GetTransparent
 0001:00003100       Vcl.StdCtrls.TCustomLabel.SetFocusControl
 0001:00003110       Vcl.StdCtrls.TCustomLabel.SetShowAccelChar
 0001:00003120       Vcl.StdCtrls.TCustomLabel.SetTransparent
 0001:00003130       Vcl.StdCtrls.TCustomLabel.SetWordWrap
 0001:00003140       Vcl.StdCtrls.TCustomLabel.Notification
 0001:00003150       Vcl.StdCtrls.TCustomLabel.UpdateStyleElements
 0001:00003160       Vcl.StdCtrls.TCustomEdit.Create@
 0001:00003170       Vcl.StdCtrls.TCustomEdit.Create
 0001:00003180       Vcl.StdCtrls.TCustomEdit.Destroy@
 0001:00003190       Vcl.StdCtrls.TCustomEdit.DoSetMaxLength
 0001:000031A0       Vcl.StdCtrls.TCustomEdit.DoSetTextHint
 0001:000031B0       Vcl.StdCtrls.TCustomEdit.SetAutoSize
 0001:000031C0       Vcl.StdCtrls.TCustomEdit.GetSelStart
 0001:000031D0       Vcl.StdCtrls.TCustomEdit.SetSelStart
 0001:000031E0       Vcl.StdCtrls.TCustomEdit.GetSelLength
 0001:000031F0       Vcl.StdCtrls.TCustomEdit.SetSelLength
 0001:00003200       Vcl.StdCtrls.TCustomEdit.UpdateTIPStatus
 0001:00003210       Vcl.StdCtrls.TCustomEdit.Clear
 0001:00003220       Vcl.StdCtrls.TCustomEdit.GetSelTextBuf
 0001:00003230       Vcl.StdCtrls.TCustomEdit.GetSelText
 0001:00003240       Vcl.StdCtrls.TCustomEdit.KeyDown
 0001:00003250       Vcl.StdCtrls.TCustomEdit.KeyPress
 0001:00003260       Vcl.StdCtrls.TCustomEdit.CanObserve
 0001:00003270       Vcl.StdCtrls.TCustomEdit.ObserverAdded
 0001:00003280       Vcl.StdCtrls.TCustomEdit.ObserverToggle
 0001:00003290       Vcl.StdCtrls.TCustomEdit.SetSelText
 0001:000032A0       Vcl.StdCtrls.TCustomEdit.CreateParams
 0001:000032B0       Vcl.StdCtrls.TCustomEdit.CreateWindowHandle
 0001:000032C0       Vcl.StdCtrls.TCustomEdit.CreateWnd
 0001:000032D0       Vcl.StdCtrls.TCustomEdit.DestroyWnd
 0001:000032E0       Vcl.StdCtrls.TCustomEdit.UpdateEditMargins
 0001:000032F0       Vcl.StdCtrls.TCustomEdit.DefaultHandler
 0001:00003300       Vcl.StdCtrls.TCustomMemo.Create@
 0001:00003310       Vcl.StdCtrls.TCustomMemo.Destroy@
 0001:00003320       Vcl.StdCtrls.TCustomComboBox.Create@
 0001:00003330       Vcl.StdCtrls.TCustomComboBox.Destroy@
 0001:00003340       Vcl.StdCtrls.TCustomButton.Create@
 0001:00003350       Vcl.StdCtrls.TCustomButton.Destroy@
 0001:00003360       Vcl.StdCtrls.TCustomCheckBox.Create@
 0001:00003370       Vcl.StdCtrls.TCustomCheckBox.Destroy@
 0001:00003380       Vcl.StdCtrls.TRadioButton.Create@
 0001:00003390       Vcl.StdCtrls.TRadioButton.Destroy@
 0001:000033A0       Vcl.StdCtrls.TCustomListBox.Create@
 0001:000033B0       Vcl.StdCtrls.TCustomListBox.Destroy@
 0001:000033C0       Vcl.StdCtrls.TScrollBar.Create@
 0001:000033D0       Vcl.StdCtrls.TScrollBar.Destroy@
 0001:000033E0       Vcl.StdCtrls.TCustomStaticText.Create@
 0001:000033F0       Vcl.StdCtrls.TCustomStaticText.Destroy@
 0001:00003400       Vcl.StdCtrls.TGroupBox.Create@
 0001:00003410       Vcl.StdCtrls.TGroupBox.Destroy@
 0001:00003420       Vcl.StdCtrls.TEdit.Create@
 0001:00003430       Vcl.StdCtrls.TEdit.Destroy@
 0001:00003440       Vcl.StdCtrls.TMemo.Create@
 0001:00003450       Vcl.StdCtrls.TMemo.Destroy@
 0001:00003460       Vcl.StdCtrls.TComboBox.Create@
 0001:00003470       Vcl.StdCtrls.TComboBox.Destroy@
 0001:00003480       Vcl.StdCtrls.TButton.Create@
 0001:00003490       Vcl.StdCtrls.TButton.Destroy@
 0001:000034A0       Vcl.StdCtrls.TCheckBox.Create@
 0001:000034B0       Vcl.StdCtrls.TCheckBox.Destroy@
 0001:000034C0       Vcl.StdCtrls.TListBox.Create@
 0001:000034D0       Vcl.StdCtrls.TListBox.Destroy@
 0001:000034E0       Vcl.StdCtrls.TStaticText.Create@
 0001:000034F0       Vcl.StdCtrls.TStaticText.Destroy@
 0001:00003500       Vcl.StdCtrls.Finalization
 0001:00003510       Vcl.StdCtrls.Vcl.StdCtrls
 0001:00003520       System.MaskUtils.Finalization
 0001:00003530       System.MaskUtils.System.MaskUtils
 0001:00003540       Vcl.Clipbrd.Finalization
 0001:00003550       Vcl.Clipbrd.Vcl.Clipbrd
 0001:00003560       Vcl.Mask.Finalization
 0001:00003570       Vcl.Mask.Vcl.Mask
 0001:00003580       Winapi.CommDlg.Finalization
 0001:00003590       Winapi.CommDlg.Winapi.CommDlg
 0001:000035A0       Winapi.WinSpool.Finalization
 0001:000035B0       Winapi.WinSpool.Winapi.WinSpool
 0001:000035C0       Vcl.Printers.Finalization
 0001:000035D0       Vcl.Printers.Vcl.Printers
 0001:000035E0       Winapi.RichEdit.Finalization
 0001:000035F0       Winapi.RichEdit.Winapi.RichEdit
 0001:00003600       Vcl.ToolWin.Finalization
 0001:00003610       Vcl.ToolWin.Vcl.ToolWin
 0001:00003620       Vcl.ListActns.Finalization
 0001:00003630       Vcl.ListActns.Vcl.ListActns
 0001:00003640       Vcl.ComStrs.Finalization
 0001:00003650       Vcl.ComStrs.Vcl.ComStrs
 0001:00003660       Vcl.StdActns.Finalization
 0001:00003670       Vcl.StdActns.Vcl.StdActns
 0001:00003680       Vcl.ComCtrls.TCustomTabControl.Create@
 0001:00003690       Vcl.ComCtrls.TCustomTabControl.Destroy@
 0001:000036A0       Vcl.ComCtrls.TTabControl.Create@
 0001:000036B0       Vcl.ComCtrls.TTabControl.Destroy@
 0001:000036C0       Vcl.ComCtrls.TCustomStatusBar.Create@
 0001:000036D0       Vcl.ComCtrls.TCustomStatusBar.Destroy@
 0001:000036E0       Vcl.ComCtrls.TCustomHeaderControl.Create@
 0001:000036F0       Vcl.ComCtrls.TCustomHeaderControl.Destroy@
 0001:00003700       Vcl.ComCtrls.TCustomTreeView.Create@
 0001:00003710       Vcl.ComCtrls.TCustomTreeView.Destroy@
 0001:00003720       Vcl.ComCtrls.TTreeView.Create@
 0001:00003730       Vcl.ComCtrls.TTreeView.Destroy@
 0001:00003740       Vcl.ComCtrls.TTrackBar.Create@
 0001:00003750       Vcl.ComCtrls.TTrackBar.Destroy@
 0001:00003760       Vcl.ComCtrls.TProgressBar.Create@
 0001:00003770       Vcl.ComCtrls.TProgressBar.Destroy@
 0001:00003780       Vcl.ComCtrls.TCustomRichEdit.Create@
 0001:00003790       Vcl.ComCtrls.TCustomRichEdit.Destroy@
 0001:000037A0       Vcl.ComCtrls.TRichEdit.Create@
 0001:000037B0       Vcl.ComCtrls.TRichEdit.Destroy@
 0001:000037C0       Vcl.ComCtrls.TCustomUpDown.Create@
 0001:000037D0       Vcl.ComCtrls.TCustomUpDown.Destroy@
 0001:000037E0       Vcl.ComCtrls.TUpDown.Create@
 0001:000037F0       Vcl.ComCtrls.TUpDown.Destroy@
 0001:00003800       Vcl.ComCtrls.TCustomHotKey.Create@
 0001:00003810       Vcl.ComCtrls.TCustomHotKey.Destroy@
 0001:00003820       Vcl.ComCtrls.THotKey.Create@
 0001:00003830       Vcl.ComCtrls.THotKey.Destroy@
 0001:00003840       Vcl.ComCtrls.TCustomListView.Create@
 0001:00003850       Vcl.ComCtrls.TCustomListView.Destroy@
 0001:00003860       Vcl.ComCtrls.TListView.Create@
 0001:00003870       Vcl.ComCtrls.TListView.Destroy@
 0001:00003880       Vcl.ComCtrls.TToolBar.Create@
 0001:00003890       Vcl.ComCtrls.TToolBar.Destroy@
 0001:000038A0       Vcl.ComCtrls.TCoolBar.Create@
 0001:000038B0       Vcl.ComCtrls.TCoolBar.Destroy@
 0001:000038C0       Vcl.ComCtrls.TDateTimePicker.Create@
 0001:000038D0       Vcl.ComCtrls.TDateTimePicker.Destroy@
 0001:000038E0       Vcl.ComCtrls.TPageScroller.Create@
 0001:000038F0       Vcl.ComCtrls.TPageScroller.Destroy@
 0001:00003900       Vcl.ComCtrls.TCustomComboBoxEx.Create@
 0001:00003910       Vcl.ComCtrls.TCustomComboBoxEx.Destroy@
 0001:00003920       Vcl.ComCtrls.TComboBoxEx.Create@
 0001:00003930       Vcl.ComCtrls.TComboBoxEx.Destroy@
 0001:00003940       Vcl.ComCtrls.TStatusBar.Create@
 0001:00003950       Vcl.ComCtrls.TStatusBar.Destroy@
 0001:00003960       Vcl.ComCtrls.THeaderControl.Create@
 0001:00003970       Vcl.ComCtrls.THeaderControl.Destroy@
 0001:00003980       Vcl.ComCtrls.Finalization
 0001:00003990       Vcl.ComCtrls.Vcl.ComCtrls
 0001:000039A0       System.WideStrUtils.Finalization
 0001:000039B0       System.WideStrUtils.System.WideStrUtils
 0001:000039C0       Winapi.Dlgs.Finalization
 0001:000039D0       Winapi.Dlgs.Winapi.Dlgs
 0001:000039E0       Vcl.Dialogs.Finalization
 0001:000039F0       Vcl.Dialogs.Vcl.Dialogs
 0001:00003A00       Vcl.ExtCtrls.TCustomPanel.Create@
 0001:00003A10       Vcl.ExtCtrls.TCustomPanel.Destroy@
 0001:00003A20       Vcl.ExtCtrls.TCustomCategoryPanelGroup.Create@
 0001:00003A30       Vcl.ExtCtrls.TCustomCategoryPanelGroup.Destroy@
 0001:00003A40       Vcl.ExtCtrls.TCategoryPanelGroup.Create@
 0001:00003A50       Vcl.ExtCtrls.TCategoryPanelGroup.Destroy@
 0001:00003A60       Vcl.ExtCtrls.TCustomLinkLabel.Create@
 0001:00003A70       Vcl.ExtCtrls.TCustomLinkLabel.Destroy@
 0001:00003A80       Vcl.ExtCtrls.TLinkLabel.Create@
 0001:00003A90       Vcl.ExtCtrls.TLinkLabel.Destroy@
 0001:00003AA0       Vcl.ExtCtrls.Finalization
 0001:00003AB0       Vcl.ExtCtrls.Vcl.ExtCtrls
 0001:00003AC0       Vcl.Themes.TStyleManager.Destroy@
 0001:00003AD0       Vcl.Themes.TStyleManager.Create@
 0001:00003AE0       Vcl.Themes.TCustomStyleEngine.Create@
 0001:00003AF0       Vcl.Themes.TCustomStyleEngine.Destroy@
 0001:00003B00       Vcl.Themes.Finalization
 0001:00003B10       Vcl.Themes.Vcl.Themes
 0001:00003B20       System.AnsiStrings.AnsiStrAlloc
 0001:00003B30       System.AnsiStrings.StrDispose
 0001:00003B40       System.AnsiStrings.Finalization
 0001:00003B50       System.AnsiStrings.System.AnsiStrings
 0001:00003B60       System.Win.ComConst.Finalization
 0001:00003B70       System.Win.ComConst.System.Win.ComConst
 0001:00003B80       System.Win.ComObj.TComServerObject.Destroy@
 0001:00003B90       System.Win.ComObj.TComServerObject.Create@
 0001:00003BA0       System.Win.ComObj.Finalization
 0001:00003BB0       System.Win.ComObj.System.Win.ComObj
 0001:00003BC0       System.Win.Taskbar.Finalization
 0001:00003BD0       System.Win.Taskbar.System.Win.Taskbar
 0001:00003BE0       System.Win.TaskbarCore.Finalization
 0001:00003BF0       System.Win.TaskbarCore.System.Win.TaskbarCore
 0001:00003C00       Winapi.ShellScaling.Finalization
 0001:00003C10       Winapi.ShellScaling.Winapi.ShellScaling
 0001:00003C20       Winapi.FlatSB.Finalization
 0001:00003C30       Winapi.FlatSB.Winapi.FlatSB
 0001:00003C40       Vcl.Forms.GetParentForm
 0001:00003C50       Vcl.Forms.TScrollBox.Create@
 0001:00003C60       Vcl.Forms.TScrollBox.Destroy@
 0001:00003C70       Vcl.Forms.TCustomForm.Create@
 0001:00003C80       Vcl.Forms.TCustomForm.Destroy@
 0001:00003C90       Vcl.Forms.TForm.Create@
 0001:00003CA0       Vcl.Forms.TForm.Destroy@
 0001:00003CB0       Vcl.Forms.TApplication.ProcessMessages
 0001:00003CC0       Vcl.Forms.TApplication.HandleMessage
 0001:00003CD0       Vcl.Forms.Finalization
 0001:00003CE0       Vcl.Forms.Vcl.Forms
 0001:00003CF0       Vcl.ImgList.Finalization
 0001:00003D00       Vcl.ImgList.Vcl.ImgList
 0001:00003D10       Vcl.Menus.Finalization
 0001:00003D20       Vcl.Menus.Vcl.Menus
 0001:00003D30       Winapi.TpcShrd.Finalization
 0001:00003D40       Winapi.TpcShrd.Winapi.TpcShrd
 0001:00003D50       Winapi.MsCTF.InitMSCTF
 0001:00003DA0       Winapi.MsCTF.DoneMSCTF
 0001:00003DC0       Winapi.MsCTF.Finalization
 0001:00003DE0       Winapi.MsCTF.Winapi.MsCTF
 0001:00003E00       Winapi.MsInkAut.Finalization
 0001:00003E10       Winapi.MsInkAut.Winapi.MsInkAut
 0001:00003E20       Winapi.PenInputPanel.Finalization
 0001:00003E30       Winapi.PenInputPanel.Winapi.PenInputPanel
 0001:00003E40       Vcl.Controls.TControl.GetDragImages
 0001:00003E50       Vcl.Controls.TControl.GetEnabled
 0001:00003E60       Vcl.Controls.TControl.GetAction
 0001:00003E70       Vcl.Controls.TControl.SetDragMode
 0001:00003E80       Vcl.Controls.TControl.RequestAlign
 0001:00003E90       Vcl.Controls.TControl.GetDragMode
 0001:00003EA0       Vcl.Controls.TControl.ReadState
 0001:00003EB0       Vcl.Controls.TControl.Notification
 0001:00003EC0       Vcl.Controls.TControl.SetAlign
 0001:00003ED0       Vcl.Controls.TControl.SetBounds
 0001:00003EE0       Vcl.Controls.TControl.SetWidth
 0001:00003EF0       Vcl.Controls.TControl.SetHeight
 0001:00003F00       Vcl.Controls.TControl.GetClientRect
 0001:00003F10       Vcl.Controls.TControl.GetClientWidth
 0001:00003F20       Vcl.Controls.TControl.GetClientHeight
 0001:00003F30       Vcl.Controls.TControl.GetClientOrigin
 0001:00003F40       Vcl.Controls.TControl.DefaultScalingFlags
 0001:00003F50       Vcl.Controls.TControl.GetDesignDpi
 0001:00003F60       Vcl.Controls.TControl.GetDPIForDesigner
 0001:00003F70       Vcl.Controls.TControl.GetCurrentPPI
 0001:00003F80       Vcl.Controls.TControl.GetParentCurrentDpi
 0001:00003F90       Vcl.Controls.TControl.ScaleForPPI
 0001:00003FA0       Vcl.Controls.TControl.SetAutoSize
 0001:00003FB0       Vcl.Controls.TControl.SetName
 0001:00003FC0       Vcl.Controls.TControl.SetParent
 0001:00003FD0       Vcl.Controls.TControl.SetVisible
 0001:00003FE0       Vcl.Controls.TControl.SetEnabled
 0001:00003FF0       Vcl.Controls.TControl.GetTextLen
 0001:00004000       Vcl.Controls.TControl.SetPopupMenu
 0001:00004010       Vcl.Controls.TControl.GetText
 0001:00004020       Vcl.Controls.TControl.SetText
 0001:00004030       Vcl.Controls.TControl.SetBiDiMode
 0001:00004040       Vcl.Controls.TControl.SetFont
 0001:00004050       Vcl.Controls.TControl.IsFontStored
 0001:00004060       Vcl.Controls.TControl.IsShowHintStored
 0001:00004070       Vcl.Controls.TControl.SetParentFont
 0001:00004080       Vcl.Controls.TControl.SetShowHint
 0001:00004090       Vcl.Controls.TControl.SetParentShowHint
 0001:000040A0       Vcl.Controls.TControl.SetColor
 0001:000040B0       Vcl.Controls.TControl.IsColorStored
 0001:000040C0       Vcl.Controls.TControl.SetParentColor
 0001:000040D0       Vcl.Controls.TControl.SetParentBiDiMode
 0001:000040E0       Vcl.Controls.TControl.GetDeviceContext
 0001:000040F0       Vcl.Controls.TControl.Invalidate
 0001:00004100       Vcl.Controls.TControl.Update
 0001:00004110       Vcl.Controls.TControl.Refresh
 0001:00004120       Vcl.Controls.TControl.Repaint
 0001:00004130       Vcl.Controls.TControl.DoGesture
 0001:00004140       Vcl.Controls.TControl.DoGetGestureOptions
 0001:00004150       Vcl.Controls.TControl.CanAutoSize
 0001:00004160       Vcl.Controls.TControl.CanResize
 0001:00004170       Vcl.Controls.TControl.ConstrainedResize
 0001:00004180       Vcl.Controls.TControl.Perform
 0001:00004190       Vcl.Controls.TControl.WndProc
 0001:000041A0       Vcl.Controls.TControl.DefaultHandler
 0001:000041B0       Vcl.Controls.TControl.DefineProperties
 0001:000041C0       Vcl.Controls.TControl.MouseDown
 0001:000041D0       Vcl.Controls.TControl.CreateTouchManager
 0001:000041E0       Vcl.Controls.TControl.AsyncSchedule
 0001:000041F0       Vcl.Controls.TControl.IsCaptionStored
 0001:00004200       Vcl.Controls.TControl.IsEnabledStored
 0001:00004210       Vcl.Controls.TControl.IsHintStored
 0001:00004220       Vcl.Controls.TControl.IsVisibleStored
 0001:00004230       Vcl.Controls.TControl.IsOnClickStored
 0001:00004240       Vcl.Controls.TControl.Loaded
 0001:00004250       Vcl.Controls.TControl.AssignTo
 0001:00004260       Vcl.Controls.TControl.GetFloating
 0001:00004270       Vcl.Controls.TControl.GetFloatingDockSiteClass
 0001:00004280       Vcl.Controls.TControl.InitiateAction
 0001:00004290       Vcl.Controls.TControl.UpdateStyleElements
 0001:000042A0       Vcl.Controls.TControl.SetStyleElements
 0001:000042B0       Vcl.Controls.TControl.SetStyleName
 0001:000042C0       Vcl.Controls.TControl.GetAllocatedWindowHandle
 0001:000042D0       Vcl.Controls.TControl.GetSystemMetrics
 0001:000042E0       Vcl.Controls.TControl.GetStyleName
 0001:000042F0       Vcl.Controls.TControl.IsCustomStyleActive
 0001:00004300       Vcl.Controls.TControl.IsLightStyleColor
 0001:00004310       Vcl.Controls.TWinControl.Destroy
 0001:00004320       Vcl.Controls.TWinControl.ReadState
 0001:00004330       Vcl.Controls.TWinControl.AdjustClientRect
 0001:00004340       Vcl.Controls.TWinControl.AlignControls
 0001:00004350       Vcl.Controls.TWinControl.Notification
 0001:00004360       Vcl.Controls.TWinControl.CreateParams
 0001:00004370       Vcl.Controls.TWinControl.CreateWnd
 0001:00004380       Vcl.Controls.TWinControl.CreateWindowHandle
 0001:00004390       Vcl.Controls.TWinControl.DefineProperties
 0001:000043A0       Vcl.Controls.TWinControl.DoWritePixelsPerInch
 0001:000043B0       Vcl.Controls.TWinControl.DestroyWnd
 0001:000043C0       Vcl.Controls.TWinControl.DestroyWindowHandle
 0001:000043D0       Vcl.Controls.TWinControl.CreateHandle
 0001:000043E0       Vcl.Controls.TWinControl.CustomAlignInsertBefore
 0001:000043F0       Vcl.Controls.TWinControl.CustomAlignPosition
 0001:00004400       Vcl.Controls.TWinControl.DestroyHandle
 0001:00004410       Vcl.Controls.TWinControl.SetParentDoubleBuffered
 0001:00004420       Vcl.Controls.TWinControl.WndProc
 0001:00004430       Vcl.Controls.TWinControl.DefaultHandler
 0001:00004440       Vcl.Controls.TWinControl.PaintWindow
 0001:00004450       Vcl.Controls.TWinControl.WMSize
 0001:00004460       Vcl.Controls.TWinControl.WMSetFocus
 0001:00004470       Vcl.Controls.TWinControl.WMKillFocus
 0001:00004480       Vcl.Controls.TWinControl.RequestAlign
 0001:00004490       Vcl.Controls.TWinControl.SetIme
 0001:000044A0       Vcl.Controls.TWinControl.ResetIme
 0001:000044B0       Vcl.Controls.TWinControl.KeyDown
 0001:000044C0       Vcl.Controls.TWinControl.KeyPress
 0001:000044D0       Vcl.Controls.TWinControl.WMChar
 0001:000044E0       Vcl.Controls.TWinControl.SetBounds
 0001:000044F0       Vcl.Controls.TWinControl.ScaleForPPI
 0001:00004500       Vcl.Controls.TWinControl.ScaleControlsForDpi
 0001:00004510       Vcl.Controls.TWinControl.ShowControl
 0001:00004520       Vcl.Controls.TWinControl.GetDeviceContext
 0001:00004530       Vcl.Controls.TWinControl.Invalidate
 0001:00004540       Vcl.Controls.TWinControl.Update
 0001:00004550       Vcl.Controls.TWinControl.Repaint
 0001:00004560       Vcl.Controls.TWinControl.SetFocus
 0001:00004570       Vcl.Controls.TWinControl.GetHandle
 0001:00004580       Vcl.Controls.TWinControl.GetDPIForDesigner
 0001:00004590       Vcl.Controls.TWinControl.GetControlExtents
 0001:000045A0       Vcl.Controls.TWinControl.GetClientOrigin
 0001:000045B0       Vcl.Controls.TWinControl.GetClientRect
 0001:000045C0       Vcl.Controls.TWinControl.GetPixelsPerInch
 0001:000045D0       Vcl.Controls.TWinControl.SetPixelsPerInch
 0001:000045E0       Vcl.Controls.TWinControl.SetTabStop
 0001:000045F0       Vcl.Controls.TWinControl.HandleAllocated
 0001:00004600       Vcl.Controls.TWinControl.CanResize
 0001:00004610       Vcl.Controls.TWinControl.ConstrainedResize
 0001:00004620       Vcl.Controls.TWinControl.UpdateStyleElements
 0001:00004630       Vcl.Controls.TWinControl.AsyncSchedule
 0001:00004640       Vcl.Controls.TWinControl.AssignTo
 0001:00004650       Vcl.Controls.TWinControl.CanAutoSize
 0001:00004660       Vcl.Controls.TWinControl.SetParentBackground
 0001:00004670       Vcl.Controls.TWinControl.DockReplaceDockClient
 0001:00004680       Vcl.Controls.TWinControl.UpdateTIPStatus
 0001:00004690       Vcl.Controls.TWinControl.UpdateControlOriginalParentSize
 0001:000046A0       Vcl.Controls.TWinControl.SetParent
 0001:000046B0       Vcl.Controls.TWinControl.GetAllocatedWindowHandle
 0001:000046C0       Vcl.Controls.TGraphicControl.Create
 0001:000046D0       Vcl.Controls.TGraphicControl.Destroy
 0001:000046E0       Vcl.Controls.TCustomControl.Create
 0001:000046F0       Vcl.Controls.TCustomControl.Destroy
 0001:00004700       Vcl.Controls.TCustomControl.PaintWindow
 0001:00004710       Vcl.Controls.Finalization
 0001:00004720       Vcl.Controls.Vcl.Controls
 0001:00004778       JLLabel..TRotateLabel
 0001:00005270       JLLabel.Register
 0001:000052C0       JLLabel.TRotateLabel.Create
 0001:000053B0       JLLabel.TRotateLabel.SetEscapement
 0001:00005410       JLLabel.TRotateLabel.SetTextStyle
 0001:00005440       JLLabel.TRotateLabel.Paint
 0001:00005510       JLLabel.TRotateLabel.CalcTextPos
 0001:000059E0       JLLabel.TRotateLabel.DrawAngleText
 0001:00005B10       JLLabel.TRotateLabel.DoDrawText
 0001:00005E70       JLLabel.Finalization
 0001:00005E80       JLLabel.JLLabel
 0001:00005EE0       Hemibtn..THemisphereButton
 0001:00006F90       Hemibtn.Register
 0001:00006FE0       Hemibtn.Ceil
 0001:00007030       Hemibtn.Floor
 0001:00007080       Hemibtn.ArcTan2
 0001:00007090       Hemibtn.THemisphereButton.Create
 0001:000072C0       Hemibtn.THemisphereButton.Destroy
 0001:00007340       Hemibtn.THemisphereButton.ReadImageIn
 0001:00007360       Hemibtn.THemisphereButton.ReadImageOut
 0001:00007380       Hemibtn.THemisphereButton.ReadImageMask
 0001:000073A0       Hemibtn.THemisphereButton.ReadImageGlyph
 0001:000073C0       Hemibtn.THemisphereButton.WriteImageIn
 0001:000073E0       Hemibtn.THemisphereButton.WriteImageOut
 0001:00007400       Hemibtn.THemisphereButton.WriteImageMask
 0001:00007420       Hemibtn.THemisphereButton.WriteImageGlyph
 0001:00007440       Hemibtn.THemisphereButton.ReadGlyphValid
 0001:00007460       Hemibtn.THemisphereButton.WriteGlyphValid
 0001:00007480       Hemibtn.THemisphereButton.DefineProperties
 0001:00007680       Hemibtn.THemisphereButton.SetAllowAllUp
 0001:00007740       Hemibtn.THemisphereButton.SetAttenControl
 0001:00007780       Hemibtn.THemisphereButton.SetBevelWidth
 0001:000077C0       Hemibtn.THemisphereButton.SetBevelInner
 0001:000077F0       Hemibtn.THemisphereButton.SetBevelOuter
 0001:00007820       Hemibtn.THemisphereButton.SetBorderColor
 0001:00007850       Hemibtn.THemisphereButton.SetBorderStyle
 0001:00007880       Hemibtn.THemisphereButton.SetBounds
 0001:000078F0       Hemibtn.THemisphereButton.SetCaption
 0001:00007990       Hemibtn.THemisphereButton.SetDown
 0001:000079C0       Hemibtn.THemisphereButton.SetFaceColor
 0001:00007A20       Hemibtn.THemisphereButton.SetFaceShaded
 0001:00007A50       Hemibtn.THemisphereButton.SetFaceTransparent
 0001:00007A80       Hemibtn.THemisphereButton.SetFont
 0001:00007AC0       Hemibtn.THemisphereButton.SetGlyph
 0001:00007C30       Hemibtn.THemisphereButton.SetGlyphIndex
 0001:00007C80       Hemibtn.THemisphereButton.SetGlyphMapped
 0001:00007CB0       Hemibtn.THemisphereButton.SetGlyphShaded
 0001:00007CE0       Hemibtn.THemisphereButton.SetGlyphTransparent
 0001:00007D10       Hemibtn.THemisphereButton.SetNumGlyphs
 0001:00007D40       Hemibtn.THemisphereButton.InsideEllipse
 0001:00007DF0       Hemibtn.THemisphereButton.MouseDown
 0001:00007EC0       Hemibtn.THemisphereButton.MouseMove
 0001:00007F40       Hemibtn.THemisphereButton.MouseUp
 0001:00008100       Hemibtn.SetPixel
 0001:000081D0       Hemibtn.SetPixel4Way
 0001:00008470       Hemibtn.SetPixelNWay
 0001:00008500       Hemibtn.THemisphereButton.RenderBorder
 0001:00008890       Hemibtn.CalcRGBAtten
 0001:00008A20       Hemibtn.SetFacePixel
 0001:00008F00       Hemibtn.THemisphereButton.RenderButtonFaces
 0001:000092F0       Hemibtn.NewBitmap
 0001:000093B0       Hemibtn.DrawMasks
 0001:00009610       Hemibtn.DrawBorders
 0001:000099B0       Hemibtn.DrawCaption
 0001:00009BE0       Hemibtn.CombineImages
 0001:0000A0C0       Hemibtn.THemisphereButton.CalcImages
 0001:0000A2E0       Hemibtn.THemisphereButton.Paint
 0001:0000A5C0       Hemibtn.Finalization
 0001:0000A5D0       Hemibtn.Hemibtn
 0001:0000AAD8       CPDrv..TCommPortDriver
 0001:0000BC40       CPDrv.GetWinPlatform
 0001:0000BD20       CPDrv.GetWinVersion
 0001:0000BD60       CPDrv.BaudRateOf
 0001:0000BD80       CPDrv.DelayForRX
 0001:0000BDD0       CPDrv.TCommPortDriver.Create
 0001:0000C000       CPDrv.TCommPortDriver.Destroy
 0001:0000C070       CPDrv.TCommPortDriver.SetHandle
 0001:0000C0F0       CPDrv.TCommPortDriver.SetPort
 0001:0000C1B0       CPDrv.TCommPortDriver.SetPortName
 0001:0000C230       CPDrv.TCommPortDriver.SetBaudRate
 0001:0000C270       CPDrv.TCommPortDriver.SetBaudRateValue
 0001:0000C2A0       CPDrv.TCommPortDriver.SetDataBits
 0001:0000C2D0       CPDrv.TCommPortDriver.SetStopBits
 0001:0000C300       CPDrv.TCommPortDriver.SetParity
 0001:0000C330       CPDrv.TCommPortDriver.SetHwFlowControl
 0001:0000C360       CPDrv.TCommPortDriver.SetSwFlowControl
 0001:0000C390       CPDrv.TCommPortDriver.SetInBufSize
 0001:0000C400       CPDrv.TCommPortDriver.SetOutBufSize
 0001:0000C440       CPDrv.TCommPortDriver.SetPacketSize
 0001:0000C480       CPDrv.TCommPortDriver.SetPacketTimeout
 0001:0000C4D0       CPDrv.TCommPortDriver.SetPollingDelay
 0001:0000C550       CPDrv.TCommPortDriver.ApplyCOMSettings
 0001:0000C750       CPDrv.TCommPortDriver.Connect
 0001:0000C830       CPDrv.TCommPortDriver.Disconnect
 0001:0000C870       CPDrv.TCommPortDriver.Connected
 0001:0000C880       CPDrv.TCommPortDriver.GetLineStatus
 0001:0000C910       CPDrv.TCommPortDriver.IsPolling
 0001:0000C920       CPDrv.TCommPortDriver.PausePolling
 0001:0000C930       CPDrv.TCommPortDriver.ContinuePolling
 0001:0000C940       CPDrv.TCommPortDriver.FlushBuffers
 0001:0000C9A0       CPDrv.TCommPortDriver.CountRX
 0001:0000C9E0       CPDrv.TCommPortDriver.OutFreeSpace
 0001:0000CA30       CPDrv.TCommPortDriver.SendDataEx
 0001:0000CB40       CPDrv.TCommPortDriver.SendData
 0001:0000CB60       CPDrv.TCommPortDriver.SendByte
 0001:0000CB90       CPDrv.TCommPortDriver.SendChar
 0001:0000CBC0       CPDrv.TCommPortDriver.SendString
 0001:0000CC40       CPDrv.TCommPortDriver.SendZString
 0001:0000CC80       CPDrv.TCommPortDriver.ReadData
 0001:0000CD40       CPDrv.TCommPortDriver.ReadByte
 0001:0000CD60       CPDrv.TCommPortDriver.ReadChar
 0001:0000CD80       CPDrv.TCommPortDriver.ToggleDTR
 0001:0000CDC0       CPDrv.TCommPortDriver.ToggleRTS
 0001:0000CE00       CPDrv.TCommPortDriver.TimerWndProc
 0001:0000D060       CPDrv.Finalization
 0001:0000D070       CPDrv.CPDrv
 0001:0000D080       CPDReg.Register
 0001:0000D0D0       CPDReg.Finalization
 0001:0000D0E0       CPDReg.CPDReg
 0001:0000D0F0       Console..EInvalidFont
 0001:0000D288       Console..TFixedFont
 0001:0000D678       Console..TConsole
 0001:0000E488       Console..TAttr
 0001:0000E658       Console..TAttrManager
 0001:0000EA60       Console..TColorConsole
 0001:0000EF40       Console.Min
 0001:0000EF50       Console.Max
 0001:0000EF60       Console.Exchange
 0001:0000EF70       Console.FillInt
 0001:0000EFA0       Console.TFixedFont.Create
 0001:0000F090       Console.TFixedFont.Assign
 0001:0000F110       Console.TFixedFont.SetBkColor
 0001:0000F130       Console.TConsole.Create
 0001:0000F330       Console.TConsole.Destroy
 0001:0000F3B0       Console.TConsole.Loaded
 0001:0000F3D0       Console.TConsole.CreateParams
 0001:0000F3F0       Console.TConsole.DefaultProcessControlCodes
 0001:0000F400       Console.TConsole.WMCreate
 0001:0000F430       Console.TConsole.ResizeBuffer
 0001:0000F490       Console.TConsole.SetCols
 0001:0000F4D0       Console.TConsole.SetRows
 0001:0000F510       Console.TConsole.SetFont
 0001:0000F530       Console.TConsole.FontChanged
 0001:0000F770       Console.TConsole.SetMetrics
 0001:0000F7D0       Console.TConsole.RecalcSizeAndRange
 0001:0000F890       Console.TConsole.SetName
 0001:0000F8C0       Console.TConsole.ScreenPtr
 0001:0000F8F0       Console.TConsole.ShowText
 0001:0000F9A0       Console.TConsole.ShowCursor
 0001:0000FA20       Console.TConsole.HideCursor
 0001:0000FA30       Console.TConsole.CursorTo
 0001:0000FAB0       Console.TConsole.LazyScrollBy
 0001:0000FBE0       Console.TConsole.CMScrollBy
 0001:0000FC10       Console.TConsole.ScrollTo
 0001:0000FEC0       Console.TConsole.LazyTrackCursor
 0001:0000FF40       Console.TConsole.CMTrackCursor
 0001:0000FF50       Console.TConsole.TrackCursor
 0001:0000FFC0       Console.TConsole.SetScrollbars
 0001:00010090       Console.TConsole.InternalClrScr
 0001:00010110       Console.TConsole.ClrScr
 0001:00010130       Console.TConsole.RecalibrateFont
 0001:000101A0       Console.TConsole.ClrEol
 0001:00010200       Console.TConsole.WriteBlock
 0001:00010230       Console.Return
 0001:00010260       Console.LineFeed
 0001:00010360       Console.TConsole.WriteBuf
 0001:000106A0       Console.TConsole.WriteCodedBuf
 0001:000106E0       Console.TConsole.WriteChar
 0001:00010700       Console.TConsole.WriteString
 0001:00010780       Console.TConsole.WriteFill
 0001:00010850       Console.TConsole.KeyPressed
 0001:00010890       Console.TConsole.ReadKey
 0001:00010AE0       Console.TConsole.ReadBuf
 0001:00010C00       Console.CrtOutput
 0001:00010C40       Console.CrtInput
 0001:00010C80       Console.CrtClose
 0001:00010C90       Console.CrtOpen
 0001:00010CE0       Console.TConsole.AssignCrt
 0001:00010D40       Console.TConsole.SetOptions
 0001:00010FB0       Console.TConsole.Paint
 0001:00011220       Console.TConsole.WMSize
 0001:000112A0       Console.GetNewPos
 0001:00011310       Console.TConsole.DoScroll
 0001:000113A0       Console.TConsole.WMHScroll
 0001:000113C0       Console.TConsole.WMVScroll
 0001:000113E0       Console.TConsole.KeyPress
 0001:00011450       Console.TConsole.KeyDown
 0001:00011510       Console.TConsole.WMSetFocus
 0001:00011560       Console.TConsole.WMKillFocus
 0001:000115A0       Console.TConsole.WMGetDlgCode
 0001:000115B0       Console.TConsole.WMEraseBkgnd
 0001:000115C0       Console.TConsole.DoCtrlBreak
 0001:000115D0       Console.TConsole.MouseDown
 0001:00011620       Console.TAttr.Create
 0001:000117A0       Console.TAttrManager.Create
 0001:00011850       Console.TAttrManager.Destroy
 0001:000118A0       Console.TAttrManager.GetCount
 0001:000118B0       Console.TAttrManager.InFreeList
 0001:000118D0       Console.TAttrManager.FirstFreeIndex
 0001:000118E0       Console.TAttrManager.NextFreeIndex
 0001:00011900       Console.TAttrManager.SetFree
 0001:00011950       Console.TAttrManager.AllocIndex
 0001:00011990       Console.TAttrManager.Allocate
 0001:00011AB0       Console.TAttrManager.Clear
 0001:00011B40       Console.TAttrManager.Reference
 0001:00011B80       Console.TAttrManager.GetAttr
 0001:00011BB0       Console.TAttrManager.SetAttr
 0001:00011C20       Console.TColorConsole.Create
 0001:00011CE0       Console.TColorConsole.Destroy
 0001:00011D40       Console.TColorConsole.IndexPtr
 0001:00011D70       Console.TColorConsole.ResizeBuffer
 0001:00011EF0       Console.Check
 0001:00011F10       Console.TColorConsole.SetMetrics
 0001:000120A0       Console.TColorConsole.WriteFill
 0001:000120F0       Console.ReplaceAttr
 0001:00012160       Console.TColorConsole.FillAttr
 0001:00012270       Console.TColorConsole.WriteBlock
 0001:000122C0       Console.TColorConsole.Paint
 0001:000126F0       Console.Register
 0001:00012770       Console.Finalization
 0001:00012780       Console.Console
 0001:00012790       Vcl.Grids.TCustomGrid.Create@
 0001:000127A0       Vcl.Grids.TCustomGrid.Destroy@
 0001:000127B0       Vcl.Grids.TCustomGrid.CanEditShow
 0001:000127C0       Vcl.Grids.TCustomGrid.DefineProperties
 0001:000127D0       Vcl.Grids.TCustomGrid.Paint
 0001:000127E0       Vcl.Grids.TCustomGrid.CanObserve
 0001:000127F0       Vcl.Grids.TCustomGrid.ObserverAdded
 0001:00012800       Vcl.Grids.TCustomGrid.CalcSizingState
 0001:00012810       Vcl.Grids.TCustomGrid.DrawCellHighlight
 0001:00012820       Vcl.Grids.TCustomGrid.DrawCellBackground
 0001:00012830       Vcl.Grids.TCustomGrid.SelectionMoved
 0001:00012840       Vcl.Grids.TCustomGrid.CreateEditor
 0001:00012850       Vcl.Grids.TCustomGrid.CreateParams
 0001:00012860       Vcl.Grids.TCustomGrid.CreateWnd
 0001:00012870       Vcl.Grids.TCustomGrid.DoGesture
 0001:00012880       Vcl.Grids.TCustomGrid.CalcExpandedCellRect
 0001:00012890       Vcl.Grids.TCustomGrid.SetStyleElements
 0001:000128A0       Vcl.Grids.TCustomGrid.DeleteColumn
 0001:000128B0       Vcl.Grids.TCustomGrid.DeleteRow
 0001:000128C0       Vcl.Grids.TCustomGrid.CalcColWidth
 0001:000128D0       Vcl.Grids.TCustomDrawGrid.Create@
 0001:000128E0       Vcl.Grids.TCustomDrawGrid.Destroy@
 0001:000128F0       Vcl.Grids.TCustomDrawGrid.SelectCell
 0001:00012900       Vcl.Grids.TStringGrid.Create
 0001:00012910       Vcl.Grids.TStringGrid.Create@
 0001:00012920       Vcl.Grids.TStringGrid.Destroy@
 0001:00012930       Vcl.Grids.TStringGrid.Destroy
 0001:00012940       Vcl.Grids.TStringGrid.GetCells
 0001:00012950       Vcl.Grids.TDrawGrid.Create@
 0001:00012960       Vcl.Grids.TDrawGrid.Destroy@
 0001:00012970       Vcl.Grids.Finalization
 0001:00012980       Vcl.Grids.Vcl.Grids
 0001:00012AB0       Cologrid..TMgrid
 0001:000136D0       Cologrid.Register
 0001:00013710       Cologrid.TMgrid.SetBorderBitmap
 0001:00013740       Cologrid.TMgrid.SetOddBitmap
 0001:00013770       Cologrid.TMgrid.GetPalette
 0001:00013790       Cologrid.TMgrid.SetEvenBitmap
 0001:000137C0       Cologrid.TMgrid.setCellAlignment
 0001:000137E0       Cologrid.TMgrid.setBorderColor
 0001:00013800       Cologrid.TMgrid.setOddColor
 0001:00013820       Cologrid.TMgrid.setEvencolor
 0001:00013840       Cologrid.TMgrid.AutoInitialize
 0001:00013930       Cologrid.TMgrid.AutoDestroy
 0001:00013970       Cologrid.TMgrid.Create
 0001:00013A20       Cologrid.TMgrid.Destroy
 0001:00013A70       Cologrid.TMgrid.Loaded
 0001:00013A80       Cologrid.TMgrid.Paint
 0001:00013A90       Cologrid.TMgrid.DrawCellText
 0001:00013BA0       Cologrid.TMgrid.DrawCell
 0001:00014000       Cologrid.Finalization
 0001:00014010       Cologrid.Cologrid
 0001:00014070       OEdit..TOvrEdit
 0001:00014600       OEdit.Register
 0001:00014650       OEdit.TOvrEdit.Create
 0001:00014700       OEdit.TOvrEdit.Destroy
 0001:00014740       OEdit.TOvrEdit.KeyDown
 0001:000147F0       OEdit.TOvrEdit.KeyPress
 0001:00014850       OEdit.TOvrEdit.GetInsertKeyState
 0001:00014870       OEdit.TOvrEdit.WMChar
 0001:000149A0       OEdit.Finalization
 0001:000149B0       OEdit.OEdit
 0001:000149C0       Console2..EInvalidFont
 0001:00014B60       Console2..TFixedFont_
 0001:00014F58       Console2..TConsole2
 0001:00015D68       Console2..TAttr
 0001:00015F38       Console2..TAttrManager
 0001:00016340       Console2..TColorConsole2
 0001:00016820       Console2.Min
 0001:00016830       Console2.Max
 0001:00016840       Console2.Exchange
 0001:00016850       Console2.FillInt
 0001:00016880       Console2.TFixedFont_.Create
 0001:00016970       Console2.TFixedFont_.Assign
 0001:000169F0       Console2.TFixedFont_.SetBkColor
 0001:00016A10       Console2.TConsole2.Create
 0001:00016C10       Console2.TConsole2.Destroy
 0001:00016C90       Console2.TConsole2.Loaded
 0001:00016CB0       Console2.TConsole2.CreateParams
 0001:00016CD0       Console2.TConsole2.DefaultProcessControlCodes
 0001:00016CE0       Console2.TConsole2.WMCreate
 0001:00016D10       Console2.TConsole2.ResizeBuffer
 0001:00016D70       Console2.TConsole2.SetCols
 0001:00016DB0       Console2.TConsole2.SetRows
 0001:00016DF0       Console2.TConsole2.SetFont
 0001:00016E10       Console2.TConsole2.FontChanged
 0001:00017050       Console2.TConsole2.SetMetrics
 0001:000170B0       Console2.TConsole2.RecalcSizeAndRange
 0001:00017170       Console2.TConsole2.SetName
 0001:000171A0       Console2.TConsole2.ScreenPtr
 0001:000171D0       Console2.TConsole2.ShowText
 0001:00017280       Console2.TConsole2.ShowCursor
 0001:00017300       Console2.TConsole2.HideCursor
 0001:00017310       Console2.TConsole2.CursorTo
 0001:00017390       Console2.TConsole2.LazyScrollBy
 0001:000174C0       Console2.TConsole2.CMScrollBy
 0001:000174F0       Console2.TConsole2.ScrollTo
 0001:000177A0       Console2.TConsole2.LazyTrackCursor
 0001:00017820       Console2.TConsole2.CMTrackCursor
 0001:00017830       Console2.TConsole2.TrackCursor
 0001:000178A0       Console2.TConsole2.SetScrollbars
 0001:00017920       Console2.TConsole2.InternalClrScr
 0001:000179A0       Console2.TConsole2.ClrScr
 0001:000179C0       Console2.TConsole2.RecalibrateFont
 0001:00017A30       Console2.TConsole2.ClrEol
 0001:00017A90       Console2.TConsole2.WriteBlock
 0001:00017AC0       Console2.Return
 0001:00017AF0       Console2.LineFeed
 0001:00017BF0       Console2.TConsole2.WriteBuf
 0001:00017F30       Console2.TConsole2.WriteCodedBuf
 0001:00017F70       Console2.TConsole2.WriteChar
 0001:00017F90       Console2.TConsole2.WriteString
 0001:00018010       Console2.TConsole2.WriteFill
 0001:000180E0       Console2.TConsole2.KeyPressed
 0001:00018120       Console2.TConsole2.ReadKey
 0001:00018370       Console2.TConsole2.ReadBuf
 0001:00018490       Console2.CrtOutput
 0001:000184D0       Console2.CrtInput
 0001:00018510       Console2.CrtClose
 0001:00018520       Console2.CrtOpen
 0001:00018570       Console2.TConsole2.AssignCrt
 0001:000185D0       Console2.TConsole2.SetOptions
 0001:00018840       Console2.TConsole2.Paint
 0001:00018AB0       Console2.TConsole2.WMSize
 0001:00018B30       Console2.GetNewPos
 0001:00018BA0       Console2.TConsole2.DoScroll
 0001:00018C30       Console2.TConsole2.WMHScroll
 0001:00018C50       Console2.TConsole2.WMVScroll
 0001:00018C70       Console2.TConsole2.KeyPress
 0001:00018CE0       Console2.TConsole2.KeyDown
 0001:00018DA0       Console2.TConsole2.WMSetFocus
 0001:00018DF0       Console2.TConsole2.WMKillFocus
 0001:00018E30       Console2.TConsole2.WMGetDlgCode
 0001:00018E40       Console2.TConsole2.WMEraseBkgnd
 0001:00018E50       Console2.TConsole2.DoCtrlBreak
 0001:00018E60       Console2.TConsole2.MouseDown
 0001:00018EB0       Console2.TAttr.Create
 0001:00019030       Console2.TAttrManager.Create
 0001:000190E0       Console2.TAttrManager.Destroy
 0001:00019130       Console2.TAttrManager.GetCount
 0001:00019140       Console2.TAttrManager.InFreeList
 0001:00019160       Console2.TAttrManager.FirstFreeIndex
 0001:00019170       Console2.TAttrManager.NextFreeIndex
 0001:00019190       Console2.TAttrManager.SetFree
 0001:000191E0       Console2.TAttrManager.AllocIndex
 0001:00019220       Console2.TAttrManager.Allocate
 0001:00019340       Console2.TAttrManager.Clear
 0001:000193D0       Console2.TAttrManager.Reference
 0001:00019410       Console2.TAttrManager.GetAttr
 0001:00019440       Console2.TAttrManager.SetAttr
 0001:000194B0       Console2.TColorConsole2.Create
 0001:00019570       Console2.TColorConsole2.Destroy
 0001:000195D0       Console2.TColorConsole2.IndexPtr
 0001:00019600       Console2.TColorConsole2.ResizeBuffer
 0001:00019780       Console2.Check
 0001:000197A0       Console2.TColorConsole2.SetMetrics
 0001:00019930       Console2.TColorConsole2.WriteFill
 0001:00019980       Console2.ReplaceAttr
 0001:000199F0       Console2.TColorConsole2.FillAttr
 0001:00019B00       Console2.TColorConsole2.WriteBlock
 0001:00019B50       Console2.TColorConsole2.Paint
 0001:00019F80       Console2.Register
 0001:0001A000       Console2.Finalization
 0001:0001A010       Console2.Console2
 0001:0001A020       .zlog_requires..zlog_requires
 0001:0001AE50       .zlog_requires.@GetPackageInfoTable
 0001:0001AE60       .zlog_requires.@PackageLoad
 0001:0001AE70       .zlog_requires.@PackageUnload
 0002:00000000       SysInit.TlsIndex
 0002:00000008       SysInit.PtrToNil
 0002:00000010       SysInit.$unwind$_ZN7Sysinit14AllocTlsBufferEi
 0002:00000018       SysInit.Module
 0002:00000050       SysInit.$unwind$_ZN7Sysinit10GetTlsSizeEv
 0002:00000054       SysInit.$unwind$_ZN7Sysinit13InitThreadTLSEv
 0002:0000005C       SysInit.$unwind$_ZN7Sysinit14InitProcessTLSEv
 0002:00000064       SysInit.$unwind$_ZN7Sysinit13ExitThreadTLSEv
 0002:0000006C       SysInit.$unwind$_ZN7Sysinit14ExitProcessTLSEv
 0002:00000078       SysInit.TlsProc
 0002:00000098       SysInit.$unwind$_ZN7Sysinit16InitializeModuleEv
 0002:000000A0       SysInit.$unwind$_ZN7Sysinit18UninitializeModuleEv
 0002:000000A8       SysInit.$unwind$_ZN7Sysinit14__dbkDummyProcEv
 0002:000000AC       SysInit.$unwind$_ZN7Sysinit14__dbkFCallArgsEPvS0_S0_S0_S0_S0_S0_S0_S0_S0_S0_S0_S0_S0_S0_S0_S0_S0_S0_S0_S0_S0_S0_S0_S0_S0_S0_S0_S0_S0_
 0002:000000B4       SysInit.$unwind$_ZN7Sysinit19__dbk_fcall_wrapperEv
 0002:000000F0       SysInit.$unwind$_ZN7Sysinit8_InitPkgEyiPv
 0002:000000FC       SysInit.$unwind$_ZN7Sysinit12_PackageLoadEPN6System16PackageInfoTableE
 0002:00000104       SysInit.$unwind$_ZN7Sysinit14_PackageUnloadEPN6System16PackageInfoTableE
 0002:0000010C       SysInit.$unwind$delayhlp
 0002:0000016C       SysInit.$unwind$_ZN7Sysinit12FinalizationEv
 0002:00000174       SysInit.$unwind$_ZN7Sysinit14initializationEv
 0002:00000178       Winapi.Windows.Win32MajorVersion
 0002:0000017C       Winapi.Windows.Win32MinorVersion
 0002:00000180       Winapi.Windows.Win32Platform
 0002:00000184       Winapi.Windows.$unwind$_ZN6Winapi7Windows10ExtTextOutEP5HDC__iiiPN6System5Types5TRectENS3_13UnicodeStringEiPi
 0002:00000194       Winapi.Windows.$unwind$_ZN6Winapi7Windows20GetTextExtentPoint32EP5HDC__N6System13UnicodeStringEiRNS3_5Types5TSizeE
 0002:000001A0       Winapi.Windows.$unwind$_ZN6Winapi7Windows8MakeLongEtt
 0002:000001A4       Winapi.Windows.$unwind$_ZN6Winapi7Windows15InitVersionInfoEv
 0002:000001AC       Winapi.Windows.$unwind$_ZN6Winapi7Windows12FinalizationEv
 0002:000001B4       Winapi.Windows.$unwind$_ZN6Winapi7Windows14initializationEv
 0002:000001BC       Winapi.Messages.$unwind$_ZN6Winapi8Messages12FinalizationEv
 0002:000001C0       Winapi.Messages.$unwind$_ZN6Winapi8Messages14initializationEv
 0002:000001C4       Winapi.PsAPI.$unwind$_ZN6Winapi5Psapi12FinalizationEv
 0002:000001CC       Winapi.PsAPI.$unwind$_ZN6Winapi5Psapi14initializationEv
 0002:000001D0       Winapi.ActiveX.$unwind$_ZN6Winapi7Activex12FinalizationEv
 0002:000001D4       Winapi.ActiveX.$unwind$_ZN6Winapi7Activex14initializationEv
 0002:000001D8       Winapi.CommCtrl.$unwind$_ZN6Winapi8Commctrl12FinalizationEv
 0002:000001DC       Winapi.CommCtrl.$unwind$_ZN6Winapi8Commctrl14initializationEv
 0002:000001E0       Winapi.Qos.$unwind$_ZN6Winapi3Qos12FinalizationEv
 0002:000001E4       Winapi.Qos.$unwind$_ZN6Winapi3Qos14initializationEv
 0002:000001E8       Winapi.Winsock2.$unwind$_ZN6Winapi8Winsock212FinalizationEv
 0002:000001EC       Winapi.Winsock2.$unwind$_ZN6Winapi8Winsock214initializationEv
 0002:000001F0       Winapi.IpExport.$unwind$_ZN6Winapi8Ipexport12FinalizationEv
 0002:000001F4       Winapi.IpExport.$unwind$_ZN6Winapi8Ipexport14initializationEv
 0002:000001F8       Winapi.ShellAPI.$unwind$_ZN6Winapi8Shellapi12FinalizationEv
 0002:000001FC       Winapi.ShellAPI.$unwind$_ZN6Winapi8Shellapi14initializationEv
 0002:00000200       Winapi.RegStr.$unwind$_ZN6Winapi6Regstr12FinalizationEv
 0002:00000204       Winapi.RegStr.$unwind$_ZN6Winapi6Regstr14initializationEv
 0002:00000208       Winapi.WinInet.$unwind$_ZN6Winapi7Wininet12FinalizationEv
 0002:0000020C       Winapi.WinInet.$unwind$_ZN6Winapi7Wininet14initializationEv
 0002:00000210       Winapi.UrlMon.$unwind$_ZN6Winapi6Urlmon12FinalizationEv
 0002:00000214       Winapi.UrlMon.$unwind$_ZN6Winapi6Urlmon14initializationEv
 0002:00000218       Winapi.ObjectArray.$unwind$_ZN6Winapi11Objectarray12FinalizationEv
 0002:0000021C       Winapi.ObjectArray.$unwind$_ZN6Winapi11Objectarray14initializationEv
 0002:00000220       Winapi.StructuredQueryCondition.$unwind$_ZN6Winapi24Structuredquerycondition12FinalizationEv
 0002:00000224       Winapi.StructuredQueryCondition.$unwind$_ZN6Winapi24Structuredquerycondition14initializationEv
 0002:00000228       Winapi.PropSys.$unwind$_ZN6Winapi7Propsys12FinalizationEv
 0002:0000022C       Winapi.PropSys.$unwind$_ZN6Winapi7Propsys14initializationEv
 0002:00000230       Winapi.ShlObj.$unwind$_ZN6Winapi6Shlobj12FinalizationEv
 0002:00000234       Winapi.ShlObj.$unwind$_ZN6Winapi6Shlobj14initializationEv
 0002:00000238       Winapi.KnownFolders.$unwind$_ZN6Winapi12Knownfolders12FinalizationEv
 0002:0000023C       Winapi.KnownFolders.$unwind$_ZN6Winapi12Knownfolders14initializationEv
 0002:00000240       Winapi.Imm.$unwind$_ZN6Winapi3Imm12FinalizationEv
 0002:00000244       Winapi.Imm.$unwind$_ZN6Winapi3Imm14initializationEv
 0002:00000248       Winapi.Dwmapi.$unwind$_ZN6Winapi6Dwmapi12FinalizationEv
 0002:0000024C       Winapi.Dwmapi.$unwind$_ZN6Winapi6Dwmapi14initializationEv
 0002:00000250       System.Win.Crtl.$unwind$_ZN6System3Win4Crtl12FinalizationEv
 0002:00000254       System.Win.Crtl.$unwind$_ZN6System3Win4Crtl14initializationEv
 0002:00000258       Winapi.CommDlg.$unwind$_ZN6Winapi7Commdlg12FinalizationEv
 0002:0000025C       Winapi.CommDlg.$unwind$_ZN6Winapi7Commdlg14initializationEv
 0002:00000260       Winapi.WinSpool.$unwind$_ZN6Winapi8Winspool12FinalizationEv
 0002:00000264       Winapi.WinSpool.$unwind$_ZN6Winapi8Winspool14initializationEv
 0002:00000268       Winapi.RichEdit.$unwind$_ZN6Winapi8Richedit12FinalizationEv
 0002:0000026C       Winapi.RichEdit.$unwind$_ZN6Winapi8Richedit14initializationEv
 0002:00000270       Winapi.Dlgs.$unwind$_ZN6Winapi4Dlgs12FinalizationEv
 0002:00000274       Winapi.Dlgs.$unwind$_ZN6Winapi4Dlgs14initializationEv
 0002:00000278       Winapi.ShellScaling.$unwind$_ZN6Winapi12Shellscaling12FinalizationEv
 0002:0000027C       Winapi.ShellScaling.$unwind$_ZN6Winapi12Shellscaling14initializationEv
 0002:00000280       Winapi.TpcShrd.$unwind$_ZN6Winapi7Tpcshrd12FinalizationEv
 0002:00000284       Winapi.TpcShrd.$unwind$_ZN6Winapi7Tpcshrd14initializationEv
 0002:00000288       Winapi.MsCTF.MsCTFHandle
 0002:00000290       Winapi.MsCTF.$unwind$_ZN6Winapi5Msctf9InitMSCTFEv
 0002:00000298       Winapi.MsCTF.$unwind$_ZN6Winapi5Msctf9DoneMSCTFEv
 0002:000002A0       Winapi.MsCTF.$unwind$_ZN6Winapi5Msctf12FinalizationEv
 0002:000002A8       Winapi.MsCTF.$unwind$_ZN6Winapi5Msctf14initializationEv
 0002:000002B0       Winapi.MsInkAut.$unwind$_ZN6Winapi8Msinkaut12FinalizationEv
 0002:000002B4       Winapi.MsInkAut.$unwind$_ZN6Winapi8Msinkaut14initializationEv
 0002:000002B8       Winapi.PenInputPanel.$unwind$_ZN6Winapi13Peninputpanel12FinalizationEv
 0002:000002BC       Winapi.PenInputPanel.$unwind$_ZN6Winapi13Peninputpanel14initializationEv
 0002:000002C0       JLLabel.Alignments
 0002:000002C6       JLLabel.WordWraps
 0002:000002CC       JLLabel.$unwind$_ZN7Jllabel8RegisterEv
 0002:000002D4       JLLabel.$unwind$_ZN7Jllabel12TRotateLabelC3EPN6System7Classes10TComponentE
 0002:00000310       JLLabel.$unwind$_ZN7Jllabel12TRotateLabel13SetEscapementEi
 0002:00000318       JLLabel.$unwind$_ZN7Jllabel12TRotateLabel12SetTextStyleENS_10TTextStyleE
 0002:00000320       JLLabel.$unwind$_ZN7Jllabel12TRotateLabel5PaintEv
 0002:00000330       JLLabel.$unwind$_ZN7Jllabel12TRotateLabel11CalcTextPosERN6System5Types5TRectEiNS1_13UnicodeStringE
 0002:0000036C       JLLabel.$unwind$_ZN7Jllabel12TRotateLabel13DrawAngleTextEPN3Vcl8Graphics7TCanvasERKN6System5Types5TRectEiNS5_13UnicodeStringE
 0002:000003A4       JLLabel.$unwind$_ZN7Jllabel12TRotateLabel10DoDrawTextERN6System5Types5TRectEt
 0002:000003DC       JLLabel.$unwind$_ZN7Jllabel12FinalizationEv
 0002:000003E0       JLLabel.$unwind$_ZN7Jllabel14initializationEv
 0002:000003E4       Hemibtn.$unwind$_ZN7Hemibtn8RegisterEv
 0002:000003EC       Hemibtn.$unwind$_ZN7Hemibtn4CeilEd
 0002:000003FC       Hemibtn.$unwind$_ZN7Hemibtn5FloorEd
 0002:0000040C       Hemibtn.$unwind$_ZN7Hemibtn7ArcTan2Edd
 0002:00000414       Hemibtn.$unwind$_ZN7Hemibtn17THemisphereButtonC3EPN6System7Classes10TComponentE
 0002:00000450       Hemibtn.$unwind$_ZN7Hemibtn17THemisphereButtonD0Ev
 0002:0000045C       Hemibtn.$unwind$_ZN7Hemibtn17THemisphereButton11ReadImageInEPN6System7Classes7TStreamE
 0002:00000464       Hemibtn.$unwind$_ZN7Hemibtn17THemisphereButton12ReadImageOutEPN6System7Classes7TStreamE
 0002:0000046C       Hemibtn.$unwind$_ZN7Hemibtn17THemisphereButton13ReadImageMaskEPN6System7Classes7TStreamE
 0002:00000474       Hemibtn.$unwind$_ZN7Hemibtn17THemisphereButton14ReadImageGlyphEPN6System7Classes7TStreamE
 0002:0000047C       Hemibtn.$unwind$_ZN7Hemibtn17THemisphereButton12WriteImageInEPN6System7Classes7TStreamE
 0002:00000484       Hemibtn.$unwind$_ZN7Hemibtn17THemisphereButton13WriteImageOutEPN6System7Classes7TStreamE
 0002:0000048C       Hemibtn.$unwind$_ZN7Hemibtn17THemisphereButton14WriteImageMaskEPN6System7Classes7TStreamE
 0002:00000494       Hemibtn.$unwind$_ZN7Hemibtn17THemisphereButton15WriteImageGlyphEPN6System7Classes7TStreamE
 0002:0000049C       Hemibtn.$unwind$_ZN7Hemibtn17THemisphereButton14ReadGlyphValidEPN6System7Classes7TReaderE
 0002:000004A4       Hemibtn.$unwind$_ZN7Hemibtn17THemisphereButton15WriteGlyphValidEPN6System7Classes7TWriterE
 0002:000004AC       Hemibtn.$unwind$_ZN7Hemibtn17THemisphereButton16DefinePropertiesEPN6System7Classes6TFilerE
 0002:000004BC       Hemibtn.$unwind$_ZN7Hemibtn17THemisphereButton13SetAllowAllUpEb
 0002:000004CC       Hemibtn.$unwind$_ZN7Hemibtn17THemisphereButton15SetAttenControlEd
 0002:000004D4       Hemibtn.$unwind$_ZN7Hemibtn17THemisphereButton13SetBevelWidthEi
 0002:000004DC       Hemibtn.$unwind$_ZN7Hemibtn17THemisphereButton13SetBevelInnerENS_16THemisphereBevelE
 0002:000004E4       Hemibtn.$unwind$_ZN7Hemibtn17THemisphereButton13SetBevelOuterENS_16THemisphereBevelE
 0002:000004EC       Hemibtn.$unwind$_ZN7Hemibtn17THemisphereButton14SetBorderColorEN6System7Uitypes6TColorE
 0002:000004F4       Hemibtn.$unwind$_ZN7Hemibtn17THemisphereButton14SetBorderStyleEN3Vcl5Forms16TFormBorderStyleE
 0002:000004FC       Hemibtn.$unwind$_ZN7Hemibtn17THemisphereButton9SetBoundsEiiii
 0002:00000508       Hemibtn.$unwind$_ZN7Hemibtn17THemisphereButton10SetCaptionEN6System13UnicodeStringE
 0002:00000538       Hemibtn.$unwind$_ZN7Hemibtn17THemisphereButton7SetDownEb
 0002:00000540       Hemibtn.$unwind$_ZN7Hemibtn17THemisphereButton12SetFaceColorEN6System7Uitypes6TColorE
 0002:00000548       Hemibtn.$unwind$_ZN7Hemibtn17THemisphereButton13SetFaceShadedEb
 0002:00000550       Hemibtn.$unwind$_ZN7Hemibtn17THemisphereButton18SetFaceTransparentEb
 0002:00000558       Hemibtn.$unwind$_ZN7Hemibtn17THemisphereButton7SetFontEPN3Vcl8Graphics5TFontE
 0002:00000564       Hemibtn.$unwind$_ZN7Hemibtn17THemisphereButton8SetGlyphEPN3Vcl8Graphics7TBitmapE
 0002:00000574       Hemibtn.$unwind$_ZN7Hemibtn17THemisphereButton13SetGlyphIndexEi
 0002:0000057C       Hemibtn.$unwind$_ZN7Hemibtn17THemisphereButton14SetGlyphMappedEb
 0002:00000584       Hemibtn.$unwind$_ZN7Hemibtn17THemisphereButton14SetGlyphShadedEb
 0002:0000058C       Hemibtn.$unwind$_ZN7Hemibtn17THemisphereButton19SetGlyphTransparentEb
 0002:00000594       Hemibtn.$unwind$_ZN7Hemibtn17THemisphereButton12SetNumGlyphsEi
 0002:0000059C       Hemibtn.$unwind$_ZN7Hemibtn17THemisphereButton13InsideEllipseEii
 0002:000005A0       Hemibtn.$unwind$_ZN7Hemibtn17THemisphereButton9MouseDownEN6System7Uitypes12TMouseButtonENS1_3SetINS1_7Classes17System_Classes__1ELS6_0ELS6_10EEEii
 0002:000005B0       Hemibtn.$unwind$_ZN7Hemibtn17THemisphereButton9MouseMoveEN6System3SetINS1_7Classes17System_Classes__1ELS4_0ELS4_10EEEii
 0002:000005C0       Hemibtn.$unwind$_ZN7Hemibtn17THemisphereButton7MouseUpEN6System7Uitypes12TMouseButtonENS1_3SetINS1_7Classes17System_Classes__1ELS6_0ELS6_10EEEii
 0002:000005D0       Hemibtn.$unwind$_ZZN7Hemibtn17THemisphereButton12RenderBorderEPN3Vcl8Graphics7TCanvasEiiiiibE8SetPixelPviiddd
 0002:000005E0       Hemibtn.$unwind$_ZZN7Hemibtn17THemisphereButton12RenderBorderEPN3Vcl8Graphics7TCanvasEiiiiibE12SetPixel4WayPvii
 0002:000005F4       Hemibtn.$unwind$_ZZN7Hemibtn17THemisphereButton12RenderBorderEPN3Vcl8Graphics7TCanvasEiiiiibE12SetPixelNWayPvii
 0002:00000608       Hemibtn.$unwind$_ZN7Hemibtn17THemisphereButton12RenderBorderEPN3Vcl8Graphics7TCanvasEiiiiib
 0002:00000638       Hemibtn.$unwind$_ZZZN7Hemibtn17THemisphereButton17RenderButtonFacesEiPN3Vcl8Graphics7TCanvasES4_S4_E12SetFacePixelPviidddE12CalcRGBAttenS5_
 0002:00000644       Hemibtn.$unwind$_ZZN7Hemibtn17THemisphereButton17RenderButtonFacesEiPN3Vcl8Graphics7TCanvasES4_S4_E12SetFacePixelPviiddd
 0002:0000065C       Hemibtn.$unwind$_ZN7Hemibtn17THemisphereButton17RenderButtonFacesEiPN3Vcl8Graphics7TCanvasES4_S4_
 0002:00000680       Hemibtn.$unwind$_ZZN7Hemibtn17THemisphereButton10CalcImagesEvE9NewBitmapPvb
 0002:00000694       Hemibtn.$unwind$_ZZN7Hemibtn17THemisphereButton10CalcImagesEvE9DrawMasksPv
 0002:000006A4       Hemibtn.$unwind$_ZZN7Hemibtn17THemisphereButton10CalcImagesEvE11DrawBordersPv
 0002:000006B4       Hemibtn.$unwind$_ZZN7Hemibtn17THemisphereButton10CalcImagesEvE11DrawCaptionPv
 0002:000006C8       Hemibtn.$unwind$_ZZN7Hemibtn17THemisphereButton10CalcImagesEvE13CombineImagesPv
 0002:000006DC       Hemibtn.$unwind$_ZN7Hemibtn17THemisphereButton10CalcImagesEv
 0002:00000710       Hemibtn.$unwind$_ZN7Hemibtn17THemisphereButton5PaintEv
 0002:00000740       Hemibtn.$unwind$_ZN7Hemibtn12FinalizationEv
 0002:00000744       Hemibtn.$unwind$_ZN7Hemibtn14initializationEv
 0002:00000748       CPDrv.Win32BaudRates
 0002:00000784       CPDrv.funcs
 0002:0000078C       CPDrv.funcs
 0002:00000794       CPDrv.$unwind$_ZN5Cpdrv14GetWinPlatformEv
 0002:000007A4       CPDrv.$unwind$_ZN5Cpdrv13GetWinVersionEv
 0002:000007AC       CPDrv.$unwind$_ZN5Cpdrv10BaudRateOfENS_9TBaudRateE
 0002:000007B0       CPDrv.$unwind$_ZN5Cpdrv10DelayForRXENS_9TBaudRateEj
 0002:000007B8       CPDrv.$unwind$_ZN5Cpdrv15TCommPortDriverC3EPN6System7Classes10TComponentE
 0002:000007F4       CPDrv.$unwind$_ZN5Cpdrv15TCommPortDriverD0Ev
 0002:00000800       CPDrv.$unwind$_ZN5Cpdrv15TCommPortDriver9SetHandleEy
 0002:0000080C       CPDrv.$unwind$_ZN5Cpdrv15TCommPortDriver7SetPortENS_11TPortNumberE
 0002:0000083C       CPDrv.$unwind$_ZN5Cpdrv15TCommPortDriver11SetPortNameEN6System13UnicodeStringE
 0002:0000086C       CPDrv.$unwind$_ZN5Cpdrv15TCommPortDriver11SetBaudRateENS_9TBaudRateE
 0002:00000874       CPDrv.$unwind$_ZN5Cpdrv15TCommPortDriver16SetBaudRateValueEj
 0002:0000087C       CPDrv.$unwind$_ZN5Cpdrv15TCommPortDriver11SetDataBitsENS_9TDataBitsE
 0002:00000884       CPDrv.$unwind$_ZN5Cpdrv15TCommPortDriver11SetStopBitsENS_9TStopBitsE
 0002:0000088C       CPDrv.$unwind$_ZN5Cpdrv15TCommPortDriver9SetParityENS_7TParityE
 0002:00000894       CPDrv.$unwind$_ZN5Cpdrv15TCommPortDriver16SetHwFlowControlENS_14THwFlowControlE
 0002:0000089C       CPDrv.$unwind$_ZN5Cpdrv15TCommPortDriver16SetSwFlowControlENS_14TSwFlowControlE
 0002:000008A4       CPDrv.$unwind$_ZN5Cpdrv15TCommPortDriver12SetInBufSizeEj
 0002:000008B0       CPDrv.$unwind$_ZN5Cpdrv15TCommPortDriver13SetOutBufSizeEj
 0002:000008BC       CPDrv.$unwind$_ZN5Cpdrv15TCommPortDriver13SetPacketSizeEs
 0002:000008C4       CPDrv.$unwind$_ZN5Cpdrv15TCommPortDriver16SetPacketTimeoutEi
 0002:000008C8       CPDrv.$unwind$_ZN5Cpdrv15TCommPortDriver15SetPollingDelayEt
 0002:000008D4       CPDrv.$unwind$_ZN5Cpdrv15TCommPortDriver16ApplyCOMSettingsEv
 0002:00000904       CPDrv.$unwind$_ZN5Cpdrv15TCommPortDriver7ConnectEv
 0002:00000914       CPDrv.$unwind$_ZN5Cpdrv15TCommPortDriver10DisconnectEv
 0002:0000091C       CPDrv.$unwind$_ZN5Cpdrv15TCommPortDriver9ConnectedEv
 0002:00000920       CPDrv.$unwind$_ZN5Cpdrv15TCommPortDriver13GetLineStatusEv
 0002:00000930       CPDrv.$unwind$_ZN5Cpdrv15TCommPortDriver9IsPollingEv
 0002:00000934       CPDrv.$unwind$_ZN5Cpdrv15TCommPortDriver12PausePollingEv
 0002:00000938       CPDrv.$unwind$_ZN5Cpdrv15TCommPortDriver15ContinuePollingEv
 0002:0000093C       CPDrv.$unwind$_ZN5Cpdrv15TCommPortDriver12FlushBuffersEbb
 0002:0000094C       CPDrv.$unwind$_ZN5Cpdrv15TCommPortDriver7CountRXEv
 0002:0000095C       CPDrv.$unwind$_ZN5Cpdrv15TCommPortDriver12OutFreeSpaceEv
 0002:00000968       CPDrv.$unwind$_ZN5Cpdrv15TCommPortDriver10SendDataExEPcjj
 0002:0000097C       CPDrv.$unwind$_ZN5Cpdrv15TCommPortDriver8SendDataEPvj
 0002:00000984       CPDrv.$unwind$_ZN5Cpdrv15TCommPortDriver8SendByteEh
 0002:0000098C       CPDrv.$unwind$_ZN5Cpdrv15TCommPortDriver8SendCharEc
 0002:00000994       CPDrv.$unwind$_ZN5Cpdrv15TCommPortDriver10SendStringEN6System11AnsiStringTILt0EEE
 0002:000009C4       CPDrv.$unwind$_ZN5Cpdrv15TCommPortDriver11SendZStringEPc
 0002:000009D0       CPDrv.$unwind$_ZN5Cpdrv15TCommPortDriver8ReadDataEPcj
 0002:000009E4       CPDrv.$unwind$_ZN5Cpdrv15TCommPortDriver8ReadByteERh
 0002:000009EC       CPDrv.$unwind$_ZN5Cpdrv15TCommPortDriver8ReadCharERc
 0002:000009F4       CPDrv.$unwind$_ZN5Cpdrv15TCommPortDriver9ToggleDTREb
 0002:00000A00       CPDrv.$unwind$_ZN5Cpdrv15TCommPortDriver9ToggleRTSEb
 0002:00000A0C       CPDrv.$unwind$_ZN5Cpdrv15TCommPortDriver12TimerWndProcERN6Winapi8Messages8TMessageE
 0002:00000A1C       CPDrv.$unwind$_ZN5Cpdrv12FinalizationEv
 0002:00000A20       CPDrv.$unwind$_ZN5Cpdrv14initializationEv
 0002:00000A24       CPDReg.$unwind$_ZN6Cpdreg8RegisterEv
 0002:00000A2C       CPDReg.$unwind$_ZN6Cpdreg12FinalizationEv
 0002:00000A30       CPDReg.$unwind$_ZN6Cpdreg14initializationEv
 0002:00000A34       Console.ReadActive
 0002:00000A35       Console.ScrollKeys
 0002:00000A68       Console.$unwind$_ZN7Console3MinEii
 0002:00000A6C       Console.$unwind$_ZN7Console3MaxEii
 0002:00000A70       Console.$unwind$_ZN7Console8ExchangeERPvS1_
 0002:00000A74       Console.$unwind$_ZN7Console7FillIntEPvji
 0002:00000A78       Console.$unwind$_ZN7Console10TFixedFontC3Ev
 0002:00000AB4       Console.$unwind$_ZN7Console10TFixedFont6AssignEPN6System7Classes11TPersistentE
 0002:00000AF0       Console.$unwind$_ZN7Console10TFixedFont10SetBkColorEN6System7Uitypes6TColorE
 0002:00000AF8       Console.$unwind$_ZN7Console8TConsoleC3EPN6System7Classes10TComponentE
 0002:00000B34       Console.$unwind$_ZN7Console8TConsoleD0Ev
 0002:00000B40       Console.$unwind$_ZN7Console8TConsole6LoadedEv
 0002:00000B48       Console.$unwind$_ZN7Console8TConsole12CreateParamsERN3Vcl8Controls13TCreateParamsE
 0002:00000B50       Console.$unwind$_ZN7Console8TConsole26DefaultProcessControlCodesEPcj
 0002:00000B58       Console.$unwind$_ZN7Console8TConsole8WMCreateEPv
 0002:00000B64       Console.$unwind$_ZN7Console8TConsole12ResizeBufferEv
 0002:00000B70       Console.$unwind$_ZN7Console8TConsole7SetColsEi
 0002:00000B7C       Console.$unwind$_ZN7Console8TConsole7SetRowsEi
 0002:00000B88       Console.$unwind$_ZN7Console8TConsole7SetFontEPNS_10TFixedFontE
 0002:00000B90       Console.$unwind$_ZN7Console8TConsole11FontChangedEPN6System7TObjectE
 0002:00000BC4       Console.$unwind$_ZN7Console8TConsole10SetMetricsERK14tagTEXTMETRICW
 0002:00000BD0       Console.$unwind$_ZN7Console8TConsole18RecalcSizeAndRangeEv
 0002:00000BDC       Console.$unwind$_ZN7Console8TConsole7SetNameEN6System13UnicodeStringE
 0002:00000BE4       Console.$unwind$_ZN7Console8TConsole9ScreenPtrEii
 0002:00000BE8       Console.$unwind$_ZN7Console8TConsole8ShowTextEii
 0002:00000BF8       Console.$unwind$_ZN7Console8TConsole10ShowCursorEv
 0002:00000C00       Console.$unwind$_ZN7Console8TConsole10HideCursorEv
 0002:00000C08       Console.$unwind$_ZN7Console8TConsole8CursorToEii
 0002:00000C14       Console.$unwind$_ZN7Console8TConsole12LazyScrollByEii
 0002:00000C28       Console.$unwind$_ZN7Console8TConsole10CMScrollByERNS_11TCMScrollByE
 0002:00000C30       Console.$unwind$_ZN7Console8TConsole8ScrollToEii
 0002:00000C44       Console.$unwind$_ZN7Console8TConsole15LazyTrackCursorEv
 0002:00000C50       Console.$unwind$_ZN7Console8TConsole13CMTrackCursorEPv
 0002:00000C58       Console.$unwind$_ZN7Console8TConsole11TrackCursorEv
 0002:00000C64       Console.$unwind$_ZN7Console8TConsole13SetScrollbarsEv
 0002:00000C70       Console.$unwind$_ZN7Console8TConsole14InternalClrScrEv
 0002:00000C7C       Console.$unwind$_ZN7Console8TConsole6ClrScrEv
 0002:00000C84       Console.$unwind$_ZN7Console8TConsole15RecalibrateFontEv
 0002:00000C8C       Console.$unwind$_ZN7Console8TConsole6ClrEolEv
 0002:00000C98       Console.$unwind$_ZN7Console8TConsole10WriteBlockEiiPcj
 0002:00000CA0       Console.$unwind$_ZZN7Console8TConsole8WriteBufEPcjE6ReturnPv
 0002:00000CA8       Console.$unwind$_ZZN7Console8TConsole8WriteBufEPcjE8LineFeedPv
 0002:00000CB8       Console.$unwind$_ZN7Console8TConsole8WriteBufEPcj
 0002:00000CC8       Console.$unwind$_ZN7Console8TConsole13WriteCodedBufEPcj
 0002:00000CD0       Console.$unwind$_ZN7Console8TConsole9WriteCharEc
 0002:00000CD8       Console.$unwind$_ZN7Console8TConsole11WriteStringEN6System13UnicodeStringE
 0002:00000D08       Console.$unwind$_ZN7Console8TConsole9WriteFillEiicj
 0002:00000D18       Console.$unwind$_ZN7Console8TConsole10KeyPressedEv
 0002:00000D20       Console.$unwind$_ZN7Console8TConsole7ReadKeyEv
 0002:00000D50       Console.$unwind$_ZN7Console8TConsole7ReadBufEPcj
 0002:00000D60       Console.$unwind$_ZN7Console9CrtOutputERN6System8TTextRecE
 0002:00000D6C       Console.$unwind$_ZN7Console8CrtInputERN6System8TTextRecE
 0002:00000D74       Console.$unwind$_ZN7Console8CrtCloseERN6System8TTextRecE
 0002:00000D78       Console.$unwind$_ZN7Console7CrtOpenERN6System8TTextRecE
 0002:00000D7C       Console.$unwind$_ZN7Console8TConsole9AssignCrtERN6System8TextfileE
 0002:00000D84       Console.$unwind$_ZN7Console8TConsole10SetOptionsEN6System3SetINS_14TConsoleOptionELS3_0ELS3_7EEE
 0002:00000D90       Console.$unwind$_ZN7Console8TConsole5PaintEv
 0002:00000DA4       Console.$unwind$_ZN7Console8TConsole6WMSizeERN6Winapi8Messages7TWMSizeE
 0002:00000DB0       Console.$unwind$_ZZN7Console8TConsole8DoScrollEiiiE9GetNewPosPviii
 0002:00000DB8       Console.$unwind$_ZN7Console8TConsole8DoScrollEiii
 0002:00000DC8       Console.$unwind$_ZN7Console8TConsole9WMHScrollERN6Winapi8Messages9TWMScrollE
 0002:00000DD0       Console.$unwind$_ZN7Console8TConsole9WMVScrollERN6Winapi8Messages9TWMScrollE
 0002:00000DD8       Console.$unwind$_ZN7Console8TConsole8KeyPressERw
 0002:00000DE4       Console.$unwind$_ZN7Console8TConsole7KeyDownERtN6System3SetINS2_7Classes17System_Classes__1ELS5_0ELS5_10EEE
 0002:00000DF0       Console.$unwind$_ZN7Console8TConsole10WMSetFocusERN6Winapi8Messages11TWMSetFocusE
 0002:00000DFC       Console.$unwind$_ZN7Console8TConsole11WMKillFocusERN6Winapi8Messages12TWMKillFocusE
 0002:00000E04       Console.$unwind$_ZN7Console8TConsole12WMGetDlgCodeERN6Winapi8Messages11TWMNoParamsE
 0002:00000E08       Console.$unwind$_ZN7Console8TConsole12WMEraseBkgndERN6Winapi8Messages13TWMEraseBkgndE
 0002:00000E0C       Console.$unwind$_ZN7Console8TConsole11DoCtrlBreakEv
 0002:00000E10       Console.$unwind$_ZN7Console8TConsole9MouseDownEN6System7Uitypes12TMouseButtonENS1_3SetINS1_7Classes17System_Classes__1ELS6_0ELS6_10EEEii
 0002:00000E20       Console.$unwind$_ZN7Console5TAttrC3EPNS_10TFixedFontE
 0002:00000E60       Console.$unwind$_ZN7Console12TAttrManagerC3Ev
 0002:00000E9C       Console.$unwind$_ZN7Console12TAttrManagerD0Ev
 0002:00000EA8       Console.$unwind$_ZN7Console12TAttrManager8GetCountEv
 0002:00000EAC       Console.$unwind$_ZN7Console12TAttrManager10InFreeListEPv
 0002:00000EB0       Console.$unwind$_ZN7Console12TAttrManager14FirstFreeIndexEv
 0002:00000EB4       Console.$unwind$_ZN7Console12TAttrManager13NextFreeIndexEPv
 0002:00000EB8       Console.$unwind$_ZN7Console12TAttrManager7SetFreeEi
 0002:00000EC4       Console.$unwind$_ZN7Console12TAttrManager10AllocIndexEv
 0002:00000ED0       Console.$unwind$_ZN7Console12TAttrManager8AllocateEPNS_10TFixedFontE
 0002:00000EE0       Console.$unwind$_ZN7Console12TAttrManager5ClearEv
 0002:00000EEC       Console.$unwind$_ZN7Console12TAttrManager9ReferenceEii
 0002:00000EF8       Console.$unwind$_ZN7Console12TAttrManager7GetAttrEi
 0002:00000F04       Console.$unwind$_ZN7Console12TAttrManager7SetAttrEiPNS_5TAttrE
 0002:00000F10       Console.$unwind$_ZN7Console13TColorConsoleC3EPN6System7Classes10TComponentE
 0002:00000F4C       Console.$unwind$_ZN7Console13TColorConsoleD0Ev
 0002:00000F58       Console.$unwind$_ZN7Console13TColorConsole8IndexPtrEii
 0002:00000F60       Console.$unwind$_ZN7Console13TColorConsole12ResizeBufferEv
 0002:00000F90       Console.$unwind$_ZZN7Console13TColorConsole10SetMetricsERK14tagTEXTMETRICWE5CheckPvii
 0002:00000F98       Console.$unwind$_ZN7Console13TColorConsole10SetMetricsERK14tagTEXTMETRICW
 0002:00000FAC       Console.$unwind$_ZN7Console13TColorConsole9WriteFillEiicj
 0002:00000FBC       Console.$unwind$_ZZN7Console13TColorConsole8FillAttrEiijE11ReplaceAttrPviPij
 0002:00000FD0       Console.$unwind$_ZN7Console13TColorConsole8FillAttrEiij
 0002:00000FE4       Console.$unwind$_ZN7Console13TColorConsole10WriteBlockEiiPcj
 0002:00000FF4       Console.$unwind$_ZN7Console13TColorConsole5PaintEv
 0002:00001008       Console.$unwind$_ZN7Console8RegisterEv
 0002:00001010       Console.$unwind$_ZN7Console12FinalizationEv
 0002:00001014       Console.$unwind$_ZN7Console14initializationEv
 0002:00001018       Cologrid.$unwind$_ZN8Cologrid8RegisterEv
 0002:00001020       Cologrid.$unwind$_ZN8Cologrid6TMgrid15SetBorderBitmapEPN3Vcl8Graphics7TBitmapE
 0002:0000102C       Cologrid.$unwind$_ZN8Cologrid6TMgrid12SetOddBitmapEPN3Vcl8Graphics7TBitmapE
 0002:00001038       Cologrid.$unwind$_ZN8Cologrid6TMgrid10GetPaletteEv
 0002:00001040       Cologrid.$unwind$_ZN8Cologrid6TMgrid13SetEvenBitmapEPN3Vcl8Graphics7TBitmapE
 0002:0000104C       Cologrid.$unwind$_ZN8Cologrid6TMgrid16setCellAlignmentEN6System7Classes10TAlignmentE
 0002:00001054       Cologrid.$unwind$_ZN8Cologrid6TMgrid14setBorderColorEN6System7Uitypes6TColorE
 0002:0000105C       Cologrid.$unwind$_ZN8Cologrid6TMgrid11setOddColorEN6System7Uitypes6TColorE
 0002:00001064       Cologrid.$unwind$_ZN8Cologrid6TMgrid12setEvencolorEN6System7Uitypes6TColorE
 0002:0000106C       Cologrid.$unwind$_ZN8Cologrid6TMgrid14AutoInitializeEv
 0002:00001074       Cologrid.$unwind$_ZN8Cologrid6TMgrid11AutoDestroyEv
 0002:0000107C       Cologrid.$unwind$_ZN8Cologrid6TMgridC3EPN6System7Classes10TComponentE
 0002:000010B8       Cologrid.$unwind$_ZN8Cologrid6TMgridD0Ev
 0002:000010C4       Cologrid.$unwind$_ZN8Cologrid6TMgrid6LoadedEv
 0002:000010CC       Cologrid.$unwind$_ZN8Cologrid6TMgrid5PaintEv
 0002:000010D4       Cologrid.$unwind$_ZN8Cologrid6TMgrid12DrawCellTextEiiRKN6System5Types5TRectE
 0002:0000110C       Cologrid.$unwind$_ZN8Cologrid6TMgrid8DrawCellEiiRKN6System5Types5TRectENS1_3SetIN3Vcl5Grids12Vcl_Grids__3ELS9_0ELS9_5EEE
 0002:00001148       Cologrid.$unwind$_ZN8Cologrid12FinalizationEv
 0002:0000114C       Cologrid.$unwind$_ZN8Cologrid14initializationEv
 0002:00001150       OEdit.$unwind$_ZN5Oedit8RegisterEv
 0002:00001158       OEdit.$unwind$_ZN5Oedit8TOvrEditC3EPN6System7Classes10TComponentE
 0002:00001194       OEdit.$unwind$_ZN5Oedit8TOvrEditD0Ev
 0002:000011A0       OEdit.$unwind$_ZN5Oedit8TOvrEdit7KeyDownERtN6System3SetINS2_7Classes17System_Classes__1ELS5_0ELS5_10EEE
 0002:000011AC       OEdit.$unwind$_ZN5Oedit8TOvrEdit8KeyPressERw
 0002:000011B8       OEdit.$unwind$_ZN5Oedit8TOvrEdit17GetInsertKeyStateEv
 0002:000011C0       OEdit.$unwind$_ZN5Oedit8TOvrEdit6WMCharERN6Winapi8Messages6TWMKeyE
 0002:000011F0       OEdit.$unwind$_ZN5Oedit12FinalizationEv
 0002:000011F4       OEdit.$unwind$_ZN5Oedit14initializationEv
 0002:000011F8       Console2.ReadActive
 0002:000011F9       Console2.ScrollKeys
 0002:0000122C       Console2.$unwind$_ZN8Console23MinEii
 0002:00001230       Console2.$unwind$_ZN8Console23MaxEii
 0002:00001234       Console2.$unwind$_ZN8Console28ExchangeERPvS1_
 0002:00001238       Console2.$unwind$_ZN8Console27FillIntEPvji
 0002:0000123C       Console2.$unwind$_ZN8Console211TFixedFont_C3Ev
 0002:00001278       Console2.$unwind$_ZN8Console211TFixedFont_6AssignEPN6System7Classes11TPersistentE
 0002:000012B4       Console2.$unwind$_ZN8Console211TFixedFont_10SetBkColorEN6System7Uitypes6TColorE
 0002:000012BC       Console2.$unwind$_ZN8Console29TConsole2C3EPN6System7Classes10TComponentE
 0002:000012F8       Console2.$unwind$_ZN8Console29TConsole2D0Ev
 0002:00001304       Console2.$unwind$_ZN8Console29TConsole26LoadedEv
 0002:0000130C       Console2.$unwind$_ZN8Console29TConsole212CreateParamsERN3Vcl8Controls13TCreateParamsE
 0002:00001314       Console2.$unwind$_ZN8Console29TConsole226DefaultProcessControlCodesEPcj
 0002:0000131C       Console2.$unwind$_ZN8Console29TConsole28WMCreateEPv
 0002:00001328       Console2.$unwind$_ZN8Console29TConsole212ResizeBufferEv
 0002:00001334       Console2.$unwind$_ZN8Console29TConsole27SetColsEi
 0002:00001340       Console2.$unwind$_ZN8Console29TConsole27SetRowsEi
 0002:0000134C       Console2.$unwind$_ZN8Console29TConsole27SetFontEPNS_11TFixedFont_E
 0002:00001354       Console2.$unwind$_ZN8Console29TConsole211FontChangedEPN6System7TObjectE
 0002:00001388       Console2.$unwind$_ZN8Console29TConsole210SetMetricsERK14tagTEXTMETRICW
 0002:00001394       Console2.$unwind$_ZN8Console29TConsole218RecalcSizeAndRangeEv
 0002:000013A0       Console2.$unwind$_ZN8Console29TConsole27SetNameEN6System13UnicodeStringE
 0002:000013A8       Console2.$unwind$_ZN8Console29TConsole29ScreenPtrEii
 0002:000013AC       Console2.$unwind$_ZN8Console29TConsole28ShowTextEii
 0002:000013BC       Console2.$unwind$_ZN8Console29TConsole210ShowCursorEv
 0002:000013C4       Console2.$unwind$_ZN8Console29TConsole210HideCursorEv
 0002:000013CC       Console2.$unwind$_ZN8Console29TConsole28CursorToEii
 0002:000013D8       Console2.$unwind$_ZN8Console29TConsole212LazyScrollByEii
 0002:000013EC       Console2.$unwind$_ZN8Console29TConsole210CMScrollByERNS_11TCMScrollByE
 0002:000013F4       Console2.$unwind$_ZN8Console29TConsole28ScrollToEii
 0002:00001408       Console2.$unwind$_ZN8Console29TConsole215LazyTrackCursorEv
 0002:00001414       Console2.$unwind$_ZN8Console29TConsole213CMTrackCursorEPv
 0002:0000141C       Console2.$unwind$_ZN8Console29TConsole211TrackCursorEv
 0002:00001428       Console2.$unwind$_ZN8Console29TConsole213SetScrollbarsEv
 0002:00001434       Console2.$unwind$_ZN8Console29TConsole214InternalClrScrEv
 0002:00001440       Console2.$unwind$_ZN8Console29TConsole26ClrScrEv
 0002:00001448       Console2.$unwind$_ZN8Console29TConsole215RecalibrateFontEv
 0002:00001450       Console2.$unwind$_ZN8Console29TConsole26ClrEolEv
 0002:0000145C       Console2.$unwind$_ZN8Console29TConsole210WriteBlockEiiPcj
 0002:00001464       Console2.$unwind$_ZZN8Console29TConsole28WriteBufEPcjE6ReturnPv
 0002:0000146C       Console2.$unwind$_ZZN8Console29TConsole28WriteBufEPcjE8LineFeedPv
 0002:0000147C       Console2.$unwind$_ZN8Console29TConsole28WriteBufEPcj
 0002:0000148C       Console2.$unwind$_ZN8Console29TConsole213WriteCodedBufEPcj
 0002:00001494       Console2.$unwind$_ZN8Console29TConsole29WriteCharEc
 0002:0000149C       Console2.$unwind$_ZN8Console29TConsole211WriteStringEN6System13UnicodeStringE
 0002:000014CC       Console2.$unwind$_ZN8Console29TConsole29WriteFillEiicj
 0002:000014DC       Console2.$unwind$_ZN8Console29TConsole210KeyPressedEv
 0002:000014E4       Console2.$unwind$_ZN8Console29TConsole27ReadKeyEv
 0002:00001514       Console2.$unwind$_ZN8Console29TConsole27ReadBufEPcj
 0002:00001524       Console2.$unwind$_ZN8Console29CrtOutputERN6System8TTextRecE
 0002:00001530       Console2.$unwind$_ZN8Console28CrtInputERN6System8TTextRecE
 0002:00001538       Console2.$unwind$_ZN8Console28CrtCloseERN6System8TTextRecE
 0002:0000153C       Console2.$unwind$_ZN8Console27CrtOpenERN6System8TTextRecE
 0002:00001540       Console2.$unwind$_ZN8Console29TConsole29AssignCrtERN6System8TextfileE
 0002:00001548       Console2.$unwind$_ZN8Console29TConsole210SetOptionsEN6System3SetINS_15TConsole2OptionELS3_0ELS3_7EEE
 0002:00001554       Console2.$unwind$_ZN8Console29TConsole25PaintEv
 0002:00001568       Console2.$unwind$_ZN8Console29TConsole26WMSizeERN6Winapi8Messages7TWMSizeE
 0002:00001574       Console2.$unwind$_ZZN8Console29TConsole28DoScrollEiiiE9GetNewPosPviii
 0002:0000157C       Console2.$unwind$_ZN8Console29TConsole28DoScrollEiii
 0002:0000158C       Console2.$unwind$_ZN8Console29TConsole29WMHScrollERN6Winapi8Messages9TWMScrollE
 0002:00001594       Console2.$unwind$_ZN8Console29TConsole29WMVScrollERN6Winapi8Messages9TWMScrollE
 0002:0000159C       Console2.$unwind$_ZN8Console29TConsole28KeyPressERw
 0002:000015A8       Console2.$unwind$_ZN8Console29TConsole27KeyDownERtN6System3SetINS2_7Classes17System_Classes__1ELS5_0ELS5_10EEE
 0002:000015B4       Console2.$unwind$_ZN8Console29TConsole210WMSetFocusERN6Winapi8Messages11TWMSetFocusE
 0002:000015C0       Console2.$unwind$_ZN8Console29TConsole211WMKillFocusERN6Winapi8Messages12TWMKillFocusE
 0002:000015C8       Console2.$unwind$_ZN8Console29TConsole212WMGetDlgCodeERN6Winapi8Messages11TWMNoParamsE
 0002:000015CC       Console2.$unwind$_ZN8Console29TConsole212WMEraseBkgndERN6Winapi8Messages13TWMEraseBkgndE
 0002:000015D0       Console2.$unwind$_ZN8Console29TConsole211DoCtrlBreakEv
 0002:000015D4       Console2.$unwind$_ZN8Console29TConsole29MouseDownEN6System7Uitypes12TMouseButtonENS1_3SetINS1_7Classes17System_Classes__1ELS6_0ELS6_10EEEii
 0002:000015E4       Console2.$unwind$_ZN8Console25TAttrC3EPNS_11TFixedFont_E
 0002:00001624       Console2.$unwind$_ZN8Console212TAttrManagerC3Ev
 0002:00001660       Console2.$unwind$_ZN8Console212TAttrManagerD0Ev
 0002:0000166C       Console2.$unwind$_ZN8Console212TAttrManager8GetCountEv
 0002:00001670       Console2.$unwind$_ZN8Console212TAttrManager10InFreeListEPv
 0002:00001674       Console2.$unwind$_ZN8Console212TAttrManager14FirstFreeIndexEv
 0002:00001678       Console2.$unwind$_ZN8Console212TAttrManager13NextFreeIndexEPv
 0002:0000167C       Console2.$unwind$_ZN8Console212TAttrManager7SetFreeEi
 0002:00001688       Console2.$unwind$_ZN8Console212TAttrManager10AllocIndexEv
 0002:00001694       Console2.$unwind$_ZN8Console212TAttrManager8AllocateEPNS_11TFixedFont_E
 0002:000016A4       Console2.$unwind$_ZN8Console212TAttrManager5ClearEv
 0002:000016B0       Console2.$unwind$_ZN8Console212TAttrManager9ReferenceEii
 0002:000016BC       Console2.$unwind$_ZN8Console212TAttrManager7GetAttrEi
 0002:000016C8       Console2.$unwind$_ZN8Console212TAttrManager7SetAttrEiPNS_5TAttrE
 0002:000016D4       Console2.$unwind$_ZN8Console214TColorConsole2C3EPN6System7Classes10TComponentE
 0002:00001710       Console2.$unwind$_ZN8Console214TColorConsole2D0Ev
 0002:0000171C       Console2.$unwind$_ZN8Console214TColorConsole28IndexPtrEii
 0002:00001724       Console2.$unwind$_ZN8Console214TColorConsole212ResizeBufferEv
 0002:00001754       Console2.$unwind$_ZZN8Console214TColorConsole210SetMetricsERK14tagTEXTMETRICWE5CheckPvii
 0002:0000175C       Console2.$unwind$_ZN8Console214TColorConsole210SetMetricsERK14tagTEXTMETRICW
 0002:00001770       Console2.$unwind$_ZN8Console214TColorConsole29WriteFillEiicj
 0002:00001780       Console2.$unwind$_ZZN8Console214TColorConsole28FillAttrEiijE11ReplaceAttrPviPij
 0002:00001794       Console2.$unwind$_ZN8Console214TColorConsole28FillAttrEiij
 0002:000017A8       Console2.$unwind$_ZN8Console214TColorConsole210WriteBlockEiiPcj
 0002:000017B8       Console2.$unwind$_ZN8Console214TColorConsole25PaintEv
 0002:000017CC       Console2.$unwind$_ZN8Console28RegisterEv
 0002:000017D4       Console2.$unwind$_ZN8Console212FinalizationEv
 0002:000017D8       Console2.$unwind$_ZN8Console214initializationEv
 0003:FFFE2000       SysInit.__ImageBase
 0003:00000000       SysInit.ModuleIsLib
 0003:00000001       SysInit.ModuleIsPackage
 0003:00000008       SysInit.HInstance
 0003:00000018       SysInit.dbkFCallWrapperAddr
 0003:00000020       SysInit.@_pfnDliNotifyHook2
 0003:00000028       SysInit.@_pfnDliFailureHook2
 0003:00000030       SysInit..1
 0003:00000038       SysInit.tlsBuffer
 0003:00000040       SysInit.UseTlsAPI
 0003:00000048       SysInit..bss.delayhlp
 0003:00000048       SysInit...__puiHead
 0003:00000050       Winapi.Windows..2
 0003:00000058       Winapi.Windows.HtmlHelpModule
 0003:00000060       Winapi.Messages..1
 0003:00000064       Winapi.PsAPI..1
 0003:00000068       Winapi.PsAPI.hPSAPI
 0003:00000070       Winapi.ActiveX..1
 0003:00000074       Winapi.CommCtrl..1
 0003:00000078       Winapi.Qos..1
 0003:0000007C       Winapi.Winsock2..1
 0003:00000080       Winapi.IpExport..1
 0003:00000084       Winapi.ShellAPI..1
 0003:00000088       Winapi.RegStr..1
 0003:0000008C       Winapi.WinInet..1
 0003:00000090       Winapi.UrlMon..1
 0003:00000094       Winapi.ObjectArray..1
 0003:00000098       Winapi.StructuredQueryCondition..1
 0003:0000009C       Winapi.PropSys..1
 0003:000000A0       Winapi.ShlObj..1
 0003:000000A4       Winapi.KnownFolders..1
 0003:000000A8       Winapi.Imm..1
 0003:000000AC       Winapi.Dwmapi..1
 0003:000000B0       System.Win.Crtl..1
 0003:000000B4       Winapi.CommDlg..1
 0003:000000B8       Winapi.WinSpool..1
 0003:000000BC       Winapi.RichEdit..1
 0003:000000C0       Winapi.Dlgs..1
 0003:000000C4       Winapi.ShellScaling..1
 0003:000000C8       Winapi.TpcShrd..1
 0003:000000CC       Winapi.MsCTF..1
 0003:000000D0       Winapi.MsInkAut..1
 0003:000000D4       Winapi.PenInputPanel..1
 0003:000000D8       JLLabel..2
 0003:000000DC       Hemibtn..2
 0003:000000E0       CPDrv..2
 0003:000000E4       CPDReg..1
 0003:000000E8       Console..7
 0003:000000EC       Cologrid..2
 0003:000000F0       OEdit..2
 0003:000000F4       Console2..7
 0004:00000000       SysInit.TlsLast
 0005:00000000       SysInit.$pdata$_ZN7Sysinit14AllocTlsBufferEi
 0005:0000000C       SysInit.$pdata$_ZN7Sysinit10GetTlsSizeEv
 0005:00000018       SysInit.$pdata$_ZN7Sysinit13InitThreadTLSEv
 0005:00000024       SysInit.$pdata$_ZN7Sysinit14InitProcessTLSEv
 0005:00000030       SysInit.$pdata$_ZN7Sysinit13ExitThreadTLSEv
 0005:0000003C       SysInit.$pdata$_ZN7Sysinit14ExitProcessTLSEv
 0005:00000048       SysInit.$pdata$_ZN7Sysinit16InitializeModuleEv
 0005:00000054       SysInit.$pdata$_ZN7Sysinit18UninitializeModuleEv
 0005:00000060       SysInit.$pdata$_ZN7Sysinit14__dbkDummyProcEv
 0005:0000006C       SysInit.$pdata$_ZN7Sysinit14__dbkFCallArgsEPvS0_S0_S0_S0_S0_S0_S0_S0_S0_S0_S0_S0_S0_S0_S0_S0_S0_S0_S0_S0_S0_S0_S0_S0_S0_S0_S0_S0_S0_
 0005:00000078       SysInit.$pdata$_ZN7Sysinit19__dbk_fcall_wrapperEv
 0005:00000090       SysInit.$pdata$_ZN7Sysinit8_InitPkgEyiPv
 0005:0000009C       SysInit.$pdata$_ZN7Sysinit12_PackageLoadEPN6System16PackageInfoTableE
 0005:000000A8       SysInit.$pdata$_ZN7Sysinit14_PackageUnloadEPN6System16PackageInfoTableE
 0005:000000B4       SysInit.$pdata$delayhlp
 0005:000000E4       SysInit.$pdata$_ZN7Sysinit12FinalizationEv
 0005:000000F0       SysInit.$pdata$_ZN7Sysinit14initializationEv
 0005:000000FC       Winapi.Windows.$pdata$_ZN6Winapi7Windows10ExtTextOutEP5HDC__iiiPN6System5Types5TRectENS3_13UnicodeStringEiPi
 0005:00000108       Winapi.Windows.$pdata$_ZN6Winapi7Windows20GetTextExtentPoint32EP5HDC__N6System13UnicodeStringEiRNS3_5Types5TSizeE
 0005:00000114       Winapi.Windows.$pdata$_ZN6Winapi7Windows8MakeLongEtt
 0005:00000120       Winapi.Windows.$pdata$_ZN6Winapi7Windows15InitVersionInfoEv
 0005:0000012C       Winapi.Windows.$pdata$_ZN6Winapi7Windows12FinalizationEv
 0005:00000138       Winapi.Windows.$pdata$_ZN6Winapi7Windows14initializationEv
 0005:00000144       Winapi.Messages.$pdata$_ZN6Winapi8Messages12FinalizationEv
 0005:00000150       Winapi.Messages.$pdata$_ZN6Winapi8Messages14initializationEv
 0005:0000015C       Winapi.PsAPI.$pdata$_ZN6Winapi5Psapi12FinalizationEv
 0005:00000168       Winapi.PsAPI.$pdata$_ZN6Winapi5Psapi14initializationEv
 0005:00000174       Winapi.ActiveX.$pdata$_ZN6Winapi7Activex12FinalizationEv
 0005:00000180       Winapi.ActiveX.$pdata$_ZN6Winapi7Activex14initializationEv
 0005:0000018C       Winapi.CommCtrl.$pdata$_ZN6Winapi8Commctrl12FinalizationEv
 0005:00000198       Winapi.CommCtrl.$pdata$_ZN6Winapi8Commctrl14initializationEv
 0005:000001A4       Winapi.Qos.$pdata$_ZN6Winapi3Qos12FinalizationEv
 0005:000001B0       Winapi.Qos.$pdata$_ZN6Winapi3Qos14initializationEv
 0005:000001BC       Winapi.Winsock2.$pdata$_ZN6Winapi8Winsock212FinalizationEv
 0005:000001C8       Winapi.Winsock2.$pdata$_ZN6Winapi8Winsock214initializationEv
 0005:000001D4       Winapi.IpExport.$pdata$_ZN6Winapi8Ipexport12FinalizationEv
 0005:000001E0       Winapi.IpExport.$pdata$_ZN6Winapi8Ipexport14initializationEv
 0005:000001EC       Winapi.ShellAPI.$pdata$_ZN6Winapi8Shellapi12FinalizationEv
 0005:000001F8       Winapi.ShellAPI.$pdata$_ZN6Winapi8Shellapi14initializationEv
 0005:00000204       Winapi.RegStr.$pdata$_ZN6Winapi6Regstr12FinalizationEv
 0005:00000210       Winapi.RegStr.$pdata$_ZN6Winapi6Regstr14initializationEv
 0005:0000021C       Winapi.WinInet.$pdata$_ZN6Winapi7Wininet12FinalizationEv
 0005:00000228       Winapi.WinInet.$pdata$_ZN6Winapi7Wininet14initializationEv
 0005:00000234       Winapi.UrlMon.$pdata$_ZN6Winapi6Urlmon12FinalizationEv
 0005:00000240       Winapi.UrlMon.$pdata$_ZN6Winapi6Urlmon14initializationEv
 0005:0000024C       Winapi.ObjectArray.$pdata$_ZN6Winapi11Objectarray12FinalizationEv
 0005:00000258       Winapi.ObjectArray.$pdata$_ZN6Winapi11Objectarray14initializationEv
 0005:00000264       Winapi.StructuredQueryCondition.$pdata$_ZN6Winapi24Structuredquerycondition12FinalizationEv
 0005:00000270       Winapi.StructuredQueryCondition.$pdata$_ZN6Winapi24Structuredquerycondition14initializationEv
 0005:0000027C       Winapi.PropSys.$pdata$_ZN6Winapi7Propsys12FinalizationEv
 0005:00000288       Winapi.PropSys.$pdata$_ZN6Winapi7Propsys14initializationEv
 0005:00000294       Winapi.ShlObj.$pdata$_ZN6Winapi6Shlobj12FinalizationEv
 0005:000002A0       Winapi.ShlObj.$pdata$_ZN6Winapi6Shlobj14initializationEv
 0005:000002AC       Winapi.KnownFolders.$pdata$_ZN6Winapi12Knownfolders12FinalizationEv
 0005:000002B8       Winapi.KnownFolders.$pdata$_ZN6Winapi12Knownfolders14initializationEv
 0005:000002C4       Winapi.Imm.$pdata$_ZN6Winapi3Imm12FinalizationEv
 0005:000002D0       Winapi.Imm.$pdata$_ZN6Winapi3Imm14initializationEv
 0005:000002DC       Winapi.Dwmapi.$pdata$_ZN6Winapi6Dwmapi12FinalizationEv
 0005:000002E8       Winapi.Dwmapi.$pdata$_ZN6Winapi6Dwmapi14initializationEv
 0005:000002F4       System.Win.Crtl.$pdata$_ZN6System3Win4Crtl12FinalizationEv
 0005:00000300       System.Win.Crtl.$pdata$_ZN6System3Win4Crtl14initializationEv
 0005:0000030C       Winapi.CommDlg.$pdata$_ZN6Winapi7Commdlg12FinalizationEv
 0005:00000318       Winapi.CommDlg.$pdata$_ZN6Winapi7Commdlg14initializationEv
 0005:00000324       Winapi.WinSpool.$pdata$_ZN6Winapi8Winspool12FinalizationEv
 0005:00000330       Winapi.WinSpool.$pdata$_ZN6Winapi8Winspool14initializationEv
 0005:0000033C       Winapi.RichEdit.$pdata$_ZN6Winapi8Richedit12FinalizationEv
 0005:00000348       Winapi.RichEdit.$pdata$_ZN6Winapi8Richedit14initializationEv
 0005:00000354       Winapi.Dlgs.$pdata$_ZN6Winapi4Dlgs12FinalizationEv
 0005:00000360       Winapi.Dlgs.$pdata$_ZN6Winapi4Dlgs14initializationEv
 0005:0000036C       Winapi.ShellScaling.$pdata$_ZN6Winapi12Shellscaling12FinalizationEv
 0005:00000378       Winapi.ShellScaling.$pdata$_ZN6Winapi12Shellscaling14initializationEv
 0005:00000384       Winapi.TpcShrd.$pdata$_ZN6Winapi7Tpcshrd12FinalizationEv
 0005:00000390       Winapi.TpcShrd.$pdata$_ZN6Winapi7Tpcshrd14initializationEv
 0005:0000039C       Winapi.MsCTF.$pdata$_ZN6Winapi5Msctf9InitMSCTFEv
 0005:000003A8       Winapi.MsCTF.$pdata$_ZN6Winapi5Msctf9DoneMSCTFEv
 0005:000003B4       Winapi.MsCTF.$pdata$_ZN6Winapi5Msctf12FinalizationEv
 0005:000003C0       Winapi.MsCTF.$pdata$_ZN6Winapi5Msctf14initializationEv
 0005:000003CC       Winapi.MsInkAut.$pdata$_ZN6Winapi8Msinkaut12FinalizationEv
 0005:000003D8       Winapi.MsInkAut.$pdata$_ZN6Winapi8Msinkaut14initializationEv
 0005:000003E4       Winapi.PenInputPanel.$pdata$_ZN6Winapi13Peninputpanel12FinalizationEv
 0005:000003F0       Winapi.PenInputPanel.$pdata$_ZN6Winapi13Peninputpanel14initializationEv
 0005:000003FC       JLLabel.$pdata$_ZN7Jllabel8RegisterEv
 0005:00000408       JLLabel.$pdata$_ZN7Jllabel12TRotateLabelC3EPN6System7Classes10TComponentE
 0005:00000420       JLLabel.$pdata$_ZN7Jllabel12TRotateLabel13SetEscapementEi
 0005:0000042C       JLLabel.$pdata$_ZN7Jllabel12TRotateLabel12SetTextStyleENS_10TTextStyleE
 0005:00000438       JLLabel.$pdata$_ZN7Jllabel12TRotateLabel5PaintEv
 0005:00000444       JLLabel.$pdata$_ZN7Jllabel12TRotateLabel11CalcTextPosERN6System5Types5TRectEiNS1_13UnicodeStringE
 0005:0000045C       JLLabel.$pdata$_ZN7Jllabel12TRotateLabel13DrawAngleTextEPN3Vcl8Graphics7TCanvasERKN6System5Types5TRectEiNS5_13UnicodeStringE
 0005:00000474       JLLabel.$pdata$_ZN7Jllabel12TRotateLabel10DoDrawTextERN6System5Types5TRectEt
 0005:0000048C       JLLabel.$pdata$_ZN7Jllabel12FinalizationEv
 0005:00000498       JLLabel.$pdata$_ZN7Jllabel14initializationEv
 0005:000004A4       Hemibtn.$pdata$_ZN7Hemibtn8RegisterEv
 0005:000004B0       Hemibtn.$pdata$_ZN7Hemibtn4CeilEd
 0005:000004BC       Hemibtn.$pdata$_ZN7Hemibtn5FloorEd
 0005:000004C8       Hemibtn.$pdata$_ZN7Hemibtn7ArcTan2Edd
 0005:000004D4       Hemibtn.$pdata$_ZN7Hemibtn17THemisphereButtonC3EPN6System7Classes10TComponentE
 0005:000004EC       Hemibtn.$pdata$_ZN7Hemibtn17THemisphereButtonD0Ev
 0005:000004F8       Hemibtn.$pdata$_ZN7Hemibtn17THemisphereButton11ReadImageInEPN6System7Classes7TStreamE
 0005:00000504       Hemibtn.$pdata$_ZN7Hemibtn17THemisphereButton12ReadImageOutEPN6System7Classes7TStreamE
 0005:00000510       Hemibtn.$pdata$_ZN7Hemibtn17THemisphereButton13ReadImageMaskEPN6System7Classes7TStreamE
 0005:0000051C       Hemibtn.$pdata$_ZN7Hemibtn17THemisphereButton14ReadImageGlyphEPN6System7Classes7TStreamE
 0005:00000528       Hemibtn.$pdata$_ZN7Hemibtn17THemisphereButton12WriteImageInEPN6System7Classes7TStreamE
 0005:00000534       Hemibtn.$pdata$_ZN7Hemibtn17THemisphereButton13WriteImageOutEPN6System7Classes7TStreamE
 0005:00000540       Hemibtn.$pdata$_ZN7Hemibtn17THemisphereButton14WriteImageMaskEPN6System7Classes7TStreamE
 0005:0000054C       Hemibtn.$pdata$_ZN7Hemibtn17THemisphereButton15WriteImageGlyphEPN6System7Classes7TStreamE
 0005:00000558       Hemibtn.$pdata$_ZN7Hemibtn17THemisphereButton14ReadGlyphValidEPN6System7Classes7TReaderE
 0005:00000564       Hemibtn.$pdata$_ZN7Hemibtn17THemisphereButton15WriteGlyphValidEPN6System7Classes7TWriterE
 0005:00000570       Hemibtn.$pdata$_ZN7Hemibtn17THemisphereButton16DefinePropertiesEPN6System7Classes6TFilerE
 0005:0000057C       Hemibtn.$pdata$_ZN7Hemibtn17THemisphereButton13SetAllowAllUpEb
 0005:00000588       Hemibtn.$pdata$_ZN7Hemibtn17THemisphereButton15SetAttenControlEd
 0005:00000594       Hemibtn.$pdata$_ZN7Hemibtn17THemisphereButton13SetBevelWidthEi
 0005:000005A0       Hemibtn.$pdata$_ZN7Hemibtn17THemisphereButton13SetBevelInnerENS_16THemisphereBevelE
 0005:000005AC       Hemibtn.$pdata$_ZN7Hemibtn17THemisphereButton13SetBevelOuterENS_16THemisphereBevelE
 0005:000005B8       Hemibtn.$pdata$_ZN7Hemibtn17THemisphereButton14SetBorderColorEN6System7Uitypes6TColorE
 0005:000005C4       Hemibtn.$pdata$_ZN7Hemibtn17THemisphereButton14SetBorderStyleEN3Vcl5Forms16TFormBorderStyleE
 0005:000005D0       Hemibtn.$pdata$_ZN7Hemibtn17THemisphereButton9SetBoundsEiiii
 0005:000005DC       Hemibtn.$pdata$_ZN7Hemibtn17THemisphereButton10SetCaptionEN6System13UnicodeStringE
 0005:000005F4       Hemibtn.$pdata$_ZN7Hemibtn17THemisphereButton7SetDownEb
 0005:00000600       Hemibtn.$pdata$_ZN7Hemibtn17THemisphereButton12SetFaceColorEN6System7Uitypes6TColorE
 0005:0000060C       Hemibtn.$pdata$_ZN7Hemibtn17THemisphereButton13SetFaceShadedEb
 0005:00000618       Hemibtn.$pdata$_ZN7Hemibtn17THemisphereButton18SetFaceTransparentEb
 0005:00000624       Hemibtn.$pdata$_ZN7Hemibtn17THemisphereButton7SetFontEPN3Vcl8Graphics5TFontE
 0005:00000630       Hemibtn.$pdata$_ZN7Hemibtn17THemisphereButton8SetGlyphEPN3Vcl8Graphics7TBitmapE
 0005:0000063C       Hemibtn.$pdata$_ZN7Hemibtn17THemisphereButton13SetGlyphIndexEi
 0005:00000648       Hemibtn.$pdata$_ZN7Hemibtn17THemisphereButton14SetGlyphMappedEb
 0005:00000654       Hemibtn.$pdata$_ZN7Hemibtn17THemisphereButton14SetGlyphShadedEb
 0005:00000660       Hemibtn.$pdata$_ZN7Hemibtn17THemisphereButton19SetGlyphTransparentEb
 0005:0000066C       Hemibtn.$pdata$_ZN7Hemibtn17THemisphereButton12SetNumGlyphsEi
 0005:00000678       Hemibtn.$pdata$_ZN7Hemibtn17THemisphereButton13InsideEllipseEii
 0005:00000684       Hemibtn.$pdata$_ZN7Hemibtn17THemisphereButton9MouseDownEN6System7Uitypes12TMouseButtonENS1_3SetINS1_7Classes17System_Classes__1ELS6_0ELS6_10EEEii
 0005:00000690       Hemibtn.$pdata$_ZN7Hemibtn17THemisphereButton9MouseMoveEN6System3SetINS1_7Classes17System_Classes__1ELS4_0ELS4_10EEEii
 0005:0000069C       Hemibtn.$pdata$_ZN7Hemibtn17THemisphereButton7MouseUpEN6System7Uitypes12TMouseButtonENS1_3SetINS1_7Classes17System_Classes__1ELS6_0ELS6_10EEEii
 0005:000006A8       Hemibtn.$pdata$_ZZN7Hemibtn17THemisphereButton12RenderBorderEPN3Vcl8Graphics7TCanvasEiiiiibE8SetPixelPviiddd
 0005:000006B4       Hemibtn.$pdata$_ZZN7Hemibtn17THemisphereButton12RenderBorderEPN3Vcl8Graphics7TCanvasEiiiiibE12SetPixel4WayPvii
 0005:000006C0       Hemibtn.$pdata$_ZZN7Hemibtn17THemisphereButton12RenderBorderEPN3Vcl8Graphics7TCanvasEiiiiibE12SetPixelNWayPvii
 0005:000006CC       Hemibtn.$pdata$_ZN7Hemibtn17THemisphereButton12RenderBorderEPN3Vcl8Graphics7TCanvasEiiiiib
 0005:000006D8       Hemibtn.$pdata$_ZZZN7Hemibtn17THemisphereButton17RenderButtonFacesEiPN3Vcl8Graphics7TCanvasES4_S4_E12SetFacePixelPviidddE12CalcRGBAttenS5_
 0005:000006E4       Hemibtn.$pdata$_ZZN7Hemibtn17THemisphereButton17RenderButtonFacesEiPN3Vcl8Graphics7TCanvasES4_S4_E12SetFacePixelPviiddd
 0005:000006F0       Hemibtn.$pdata$_ZN7Hemibtn17THemisphereButton17RenderButtonFacesEiPN3Vcl8Graphics7TCanvasES4_S4_
 0005:000006FC       Hemibtn.$pdata$_ZZN7Hemibtn17THemisphereButton10CalcImagesEvE9NewBitmapPvb
 0005:00000708       Hemibtn.$pdata$_ZZN7Hemibtn17THemisphereButton10CalcImagesEvE9DrawMasksPv
 0005:00000714       Hemibtn.$pdata$_ZZN7Hemibtn17THemisphereButton10CalcImagesEvE11DrawBordersPv
 0005:00000720       Hemibtn.$pdata$_ZZN7Hemibtn17THemisphereButton10CalcImagesEvE11DrawCaptionPv
 0005:0000072C       Hemibtn.$pdata$_ZZN7Hemibtn17THemisphereButton10CalcImagesEvE13CombineImagesPv
 0005:00000738       Hemibtn.$pdata$_ZN7Hemibtn17THemisphereButton10CalcImagesEv
 0005:00000750       Hemibtn.$pdata$_ZN7Hemibtn17THemisphereButton5PaintEv
 0005:00000768       Hemibtn.$pdata$_ZN7Hemibtn12FinalizationEv
 0005:00000774       Hemibtn.$pdata$_ZN7Hemibtn14initializationEv
 0005:00000780       CPDrv.$pdata$_ZN5Cpdrv14GetWinPlatformEv
 0005:0000078C       CPDrv.$pdata$_ZN5Cpdrv13GetWinVersionEv
 0005:00000798       CPDrv.$pdata$_ZN5Cpdrv10BaudRateOfENS_9TBaudRateE
 0005:000007A4       CPDrv.$pdata$_ZN5Cpdrv10DelayForRXENS_9TBaudRateEj
 0005:000007B0       CPDrv.$pdata$_ZN5Cpdrv15TCommPortDriverC3EPN6System7Classes10TComponentE
 0005:000007C8       CPDrv.$pdata$_ZN5Cpdrv15TCommPortDriverD0Ev
 0005:000007D4       CPDrv.$pdata$_ZN5Cpdrv15TCommPortDriver9SetHandleEy
 0005:000007E0       CPDrv.$pdata$_ZN5Cpdrv15TCommPortDriver7SetPortENS_11TPortNumberE
 0005:000007F8       CPDrv.$pdata$_ZN5Cpdrv15TCommPortDriver11SetPortNameEN6System13UnicodeStringE
 0005:00000810       CPDrv.$pdata$_ZN5Cpdrv15TCommPortDriver11SetBaudRateENS_9TBaudRateE
 0005:0000081C       CPDrv.$pdata$_ZN5Cpdrv15TCommPortDriver16SetBaudRateValueEj
 0005:00000828       CPDrv.$pdata$_ZN5Cpdrv15TCommPortDriver11SetDataBitsENS_9TDataBitsE
 0005:00000834       CPDrv.$pdata$_ZN5Cpdrv15TCommPortDriver11SetStopBitsENS_9TStopBitsE
 0005:00000840       CPDrv.$pdata$_ZN5Cpdrv15TCommPortDriver9SetParityENS_7TParityE
 0005:0000084C       CPDrv.$pdata$_ZN5Cpdrv15TCommPortDriver16SetHwFlowControlENS_14THwFlowControlE
 0005:00000858       CPDrv.$pdata$_ZN5Cpdrv15TCommPortDriver16SetSwFlowControlENS_14TSwFlowControlE
 0005:00000864       CPDrv.$pdata$_ZN5Cpdrv15TCommPortDriver12SetInBufSizeEj
 0005:00000870       CPDrv.$pdata$_ZN5Cpdrv15TCommPortDriver13SetOutBufSizeEj
 0005:0000087C       CPDrv.$pdata$_ZN5Cpdrv15TCommPortDriver13SetPacketSizeEs
 0005:00000888       CPDrv.$pdata$_ZN5Cpdrv15TCommPortDriver16SetPacketTimeoutEi
 0005:00000894       CPDrv.$pdata$_ZN5Cpdrv15TCommPortDriver15SetPollingDelayEt
 0005:000008A0       CPDrv.$pdata$_ZN5Cpdrv15TCommPortDriver16ApplyCOMSettingsEv
 0005:000008B8       CPDrv.$pdata$_ZN5Cpdrv15TCommPortDriver7ConnectEv
 0005:000008C4       CPDrv.$pdata$_ZN5Cpdrv15TCommPortDriver10DisconnectEv
 0005:000008D0       CPDrv.$pdata$_ZN5Cpdrv15TCommPortDriver9ConnectedEv
 0005:000008DC       CPDrv.$pdata$_ZN5Cpdrv15TCommPortDriver13GetLineStatusEv
 0005:000008E8       CPDrv.$pdata$_ZN5Cpdrv15TCommPortDriver9IsPollingEv
 0005:000008F4       CPDrv.$pdata$_ZN5Cpdrv15TCommPortDriver12PausePollingEv
 0005:00000900       CPDrv.$pdata$_ZN5Cpdrv15TCommPortDriver15ContinuePollingEv
 0005:0000090C       CPDrv.$pdata$_ZN5Cpdrv15TCommPortDriver12FlushBuffersEbb
 0005:00000918       CPDrv.$pdata$_ZN5Cpdrv15TCommPortDriver7CountRXEv
 0005:00000924       CPDrv.$pdata$_ZN5Cpdrv15TCommPortDriver12OutFreeSpaceEv
 0005:00000930       CPDrv.$pdata$_ZN5Cpdrv15TCommPortDriver10SendDataExEPcjj
 0005:0000093C       CPDrv.$pdata$_ZN5Cpdrv15TCommPortDriver8SendDataEPvj
 0005:00000948       CPDrv.$pdata$_ZN5Cpdrv15TCommPortDriver8SendByteEh
 0005:00000954       CPDrv.$pdata$_ZN5Cpdrv15TCommPortDriver8SendCharEc
 0005:00000960       CPDrv.$pdata$_ZN5Cpdrv15TCommPortDriver10SendStringEN6System11AnsiStringTILt0EEE
 0005:00000978       CPDrv.$pdata$_ZN5Cpdrv15TCommPortDriver11SendZStringEPc
 0005:00000984       CPDrv.$pdata$_ZN5Cpdrv15TCommPortDriver8ReadDataEPcj
 0005:00000990       CPDrv.$pdata$_ZN5Cpdrv15TCommPortDriver8ReadByteERh
 0005:0000099C       CPDrv.$pdata$_ZN5Cpdrv15TCommPortDriver8ReadCharERc
 0005:000009A8       CPDrv.$pdata$_ZN5Cpdrv15TCommPortDriver9ToggleDTREb
 0005:000009B4       CPDrv.$pdata$_ZN5Cpdrv15TCommPortDriver9ToggleRTSEb
 0005:000009C0       CPDrv.$pdata$_ZN5Cpdrv15TCommPortDriver12TimerWndProcERN6Winapi8Messages8TMessageE
 0005:000009CC       CPDrv.$pdata$_ZN5Cpdrv12FinalizationEv
 0005:000009D8       CPDrv.$pdata$_ZN5Cpdrv14initializationEv
 0005:000009E4       CPDReg.$pdata$_ZN6Cpdreg8RegisterEv
 0005:000009F0       CPDReg.$pdata$_ZN6Cpdreg12FinalizationEv
 0005:000009FC       CPDReg.$pdata$_ZN6Cpdreg14initializationEv
 0005:00000A08       Console.$pdata$_ZN7Console3MinEii
 0005:00000A14       Console.$pdata$_ZN7Console3MaxEii
 0005:00000A20       Console.$pdata$_ZN7Console8ExchangeERPvS1_
 0005:00000A2C       Console.$pdata$_ZN7Console7FillIntEPvji
 0005:00000A38       Console.$pdata$_ZN7Console10TFixedFontC3Ev
 0005:00000A50       Console.$pdata$_ZN7Console10TFixedFont6AssignEPN6System7Classes11TPersistentE
 0005:00000A68       Console.$pdata$_ZN7Console10TFixedFont10SetBkColorEN6System7Uitypes6TColorE
 0005:00000A74       Console.$pdata$_ZN7Console8TConsoleC3EPN6System7Classes10TComponentE
 0005:00000A8C       Console.$pdata$_ZN7Console8TConsoleD0Ev
 0005:00000A98       Console.$pdata$_ZN7Console8TConsole6LoadedEv
 0005:00000AA4       Console.$pdata$_ZN7Console8TConsole12CreateParamsERN3Vcl8Controls13TCreateParamsE
 0005:00000AB0       Console.$pdata$_ZN7Console8TConsole26DefaultProcessControlCodesEPcj
 0005:00000ABC       Console.$pdata$_ZN7Console8TConsole8WMCreateEPv
 0005:00000AC8       Console.$pdata$_ZN7Console8TConsole12ResizeBufferEv
 0005:00000AD4       Console.$pdata$_ZN7Console8TConsole7SetColsEi
 0005:00000AE0       Console.$pdata$_ZN7Console8TConsole7SetRowsEi
 0005:00000AEC       Console.$pdata$_ZN7Console8TConsole7SetFontEPNS_10TFixedFontE
 0005:00000AF8       Console.$pdata$_ZN7Console8TConsole11FontChangedEPN6System7TObjectE
 0005:00000B10       Console.$pdata$_ZN7Console8TConsole10SetMetricsERK14tagTEXTMETRICW
 0005:00000B1C       Console.$pdata$_ZN7Console8TConsole18RecalcSizeAndRangeEv
 0005:00000B28       Console.$pdata$_ZN7Console8TConsole7SetNameEN6System13UnicodeStringE
 0005:00000B34       Console.$pdata$_ZN7Console8TConsole9ScreenPtrEii
 0005:00000B40       Console.$pdata$_ZN7Console8TConsole8ShowTextEii
 0005:00000B4C       Console.$pdata$_ZN7Console8TConsole10ShowCursorEv
 0005:00000B58       Console.$pdata$_ZN7Console8TConsole10HideCursorEv
 0005:00000B64       Console.$pdata$_ZN7Console8TConsole8CursorToEii
 0005:00000B70       Console.$pdata$_ZN7Console8TConsole12LazyScrollByEii
 0005:00000B7C       Console.$pdata$_ZN7Console8TConsole10CMScrollByERNS_11TCMScrollByE
 0005:00000B88       Console.$pdata$_ZN7Console8TConsole8ScrollToEii
 0005:00000B94       Console.$pdata$_ZN7Console8TConsole15LazyTrackCursorEv
 0005:00000BA0       Console.$pdata$_ZN7Console8TConsole13CMTrackCursorEPv
 0005:00000BAC       Console.$pdata$_ZN7Console8TConsole11TrackCursorEv
 0005:00000BB8       Console.$pdata$_ZN7Console8TConsole13SetScrollbarsEv
 0005:00000BC4       Console.$pdata$_ZN7Console8TConsole14InternalClrScrEv
 0005:00000BD0       Console.$pdata$_ZN7Console8TConsole6ClrScrEv
 0005:00000BDC       Console.$pdata$_ZN7Console8TConsole15RecalibrateFontEv
 0005:00000BE8       Console.$pdata$_ZN7Console8TConsole6ClrEolEv
 0005:00000BF4       Console.$pdata$_ZN7Console8TConsole10WriteBlockEiiPcj
 0005:00000C00       Console.$pdata$_ZZN7Console8TConsole8WriteBufEPcjE6ReturnPv
 0005:00000C0C       Console.$pdata$_ZZN7Console8TConsole8WriteBufEPcjE8LineFeedPv
 0005:00000C18       Console.$pdata$_ZN7Console8TConsole8WriteBufEPcj
 0005:00000C24       Console.$pdata$_ZN7Console8TConsole13WriteCodedBufEPcj
 0005:00000C30       Console.$pdata$_ZN7Console8TConsole9WriteCharEc
 0005:00000C3C       Console.$pdata$_ZN7Console8TConsole11WriteStringEN6System13UnicodeStringE
 0005:00000C54       Console.$pdata$_ZN7Console8TConsole9WriteFillEiicj
 0005:00000C60       Console.$pdata$_ZN7Console8TConsole10KeyPressedEv
 0005:00000C6C       Console.$pdata$_ZN7Console8TConsole7ReadKeyEv
 0005:00000C84       Console.$pdata$_ZN7Console8TConsole7ReadBufEPcj
 0005:00000C90       Console.$pdata$_ZN7Console9CrtOutputERN6System8TTextRecE
 0005:00000C9C       Console.$pdata$_ZN7Console8CrtInputERN6System8TTextRecE
 0005:00000CA8       Console.$pdata$_ZN7Console8CrtCloseERN6System8TTextRecE
 0005:00000CB4       Console.$pdata$_ZN7Console7CrtOpenERN6System8TTextRecE
 0005:00000CC0       Console.$pdata$_ZN7Console8TConsole9AssignCrtERN6System8TextfileE
 0005:00000CCC       Console.$pdata$_ZN7Console8TConsole10SetOptionsEN6System3SetINS_14TConsoleOptionELS3_0ELS3_7EEE
 0005:00000CD8       Console.$pdata$_ZN7Console8TConsole5PaintEv
 0005:00000CE4       Console.$pdata$_ZN7Console8TConsole6WMSizeERN6Winapi8Messages7TWMSizeE
 0005:00000CF0       Console.$pdata$_ZZN7Console8TConsole8DoScrollEiiiE9GetNewPosPviii
 0005:00000CFC       Console.$pdata$_ZN7Console8TConsole8DoScrollEiii
 0005:00000D08       Console.$pdata$_ZN7Console8TConsole9WMHScrollERN6Winapi8Messages9TWMScrollE
 0005:00000D14       Console.$pdata$_ZN7Console8TConsole9WMVScrollERN6Winapi8Messages9TWMScrollE
 0005:00000D20       Console.$pdata$_ZN7Console8TConsole8KeyPressERw
 0005:00000D2C       Console.$pdata$_ZN7Console8TConsole7KeyDownERtN6System3SetINS2_7Classes17System_Classes__1ELS5_0ELS5_10EEE
 0005:00000D38       Console.$pdata$_ZN7Console8TConsole10WMSetFocusERN6Winapi8Messages11TWMSetFocusE
 0005:00000D44       Console.$pdata$_ZN7Console8TConsole11WMKillFocusERN6Winapi8Messages12TWMKillFocusE
 0005:00000D50       Console.$pdata$_ZN7Console8TConsole12WMGetDlgCodeERN6Winapi8Messages11TWMNoParamsE
 0005:00000D5C       Console.$pdata$_ZN7Console8TConsole12WMEraseBkgndERN6Winapi8Messages13TWMEraseBkgndE
 0005:00000D68       Console.$pdata$_ZN7Console8TConsole11DoCtrlBreakEv
 0005:00000D74       Console.$pdata$_ZN7Console8TConsole9MouseDownEN6System7Uitypes12TMouseButtonENS1_3SetINS1_7Classes17System_Classes__1ELS6_0ELS6_10EEEii
 0005:00000D80       Console.$pdata$_ZN7Console5TAttrC3EPNS_10TFixedFontE
 0005:00000D98       Console.$pdata$_ZN7Console12TAttrManagerC3Ev
 0005:00000DB0       Console.$pdata$_ZN7Console12TAttrManagerD0Ev
 0005:00000DBC       Console.$pdata$_ZN7Console12TAttrManager8GetCountEv
 0005:00000DC8       Console.$pdata$_ZN7Console12TAttrManager10InFreeListEPv
 0005:00000DD4       Console.$pdata$_ZN7Console12TAttrManager14FirstFreeIndexEv
 0005:00000DE0       Console.$pdata$_ZN7Console12TAttrManager13NextFreeIndexEPv
 0005:00000DEC       Console.$pdata$_ZN7Console12TAttrManager7SetFreeEi
 0005:00000DF8       Console.$pdata$_ZN7Console12TAttrManager10AllocIndexEv
 0005:00000E04       Console.$pdata$_ZN7Console12TAttrManager8AllocateEPNS_10TFixedFontE
 0005:00000E10       Console.$pdata$_ZN7Console12TAttrManager5ClearEv
 0005:00000E1C       Console.$pdata$_ZN7Console12TAttrManager9ReferenceEii
 0005:00000E28       Console.$pdata$_ZN7Console12TAttrManager7GetAttrEi
 0005:00000E34       Console.$pdata$_ZN7Console12TAttrManager7SetAttrEiPNS_5TAttrE
 0005:00000E40       Console.$pdata$_ZN7Console13TColorConsoleC3EPN6System7Classes10TComponentE
 0005:00000E58       Console.$pdata$_ZN7Console13TColorConsoleD0Ev
 0005:00000E64       Console.$pdata$_ZN7Console13TColorConsole8IndexPtrEii
 0005:00000E70       Console.$pdata$_ZN7Console13TColorConsole12ResizeBufferEv
 0005:00000E88       Console.$pdata$_ZZN7Console13TColorConsole10SetMetricsERK14tagTEXTMETRICWE5CheckPvii
 0005:00000E94       Console.$pdata$_ZN7Console13TColorConsole10SetMetricsERK14tagTEXTMETRICW
 0005:00000EA0       Console.$pdata$_ZN7Console13TColorConsole9WriteFillEiicj
 0005:00000EAC       Console.$pdata$_ZZN7Console13TColorConsole8FillAttrEiijE11ReplaceAttrPviPij
 0005:00000EB8       Console.$pdata$_ZN7Console13TColorConsole8FillAttrEiij
 0005:00000EC4       Console.$pdata$_ZN7Console13TColorConsole10WriteBlockEiiPcj
 0005:00000ED0       Console.$pdata$_ZN7Console13TColorConsole5PaintEv
 0005:00000EDC       Console.$pdata$_ZN7Console8RegisterEv
 0005:00000EE8       Console.$pdata$_ZN7Console12FinalizationEv
 0005:00000EF4       Console.$pdata$_ZN7Console14initializationEv
 0005:00000F00       Cologrid.$pdata$_ZN8Cologrid8RegisterEv
 0005:00000F0C       Cologrid.$pdata$_ZN8Cologrid6TMgrid15SetBorderBitmapEPN3Vcl8Graphics7TBitmapE
 0005:00000F18       Cologrid.$pdata$_ZN8Cologrid6TMgrid12SetOddBitmapEPN3Vcl8Graphics7TBitmapE
 0005:00000F24       Cologrid.$pdata$_ZN8Cologrid6TMgrid10GetPaletteEv
 0005:00000F30       Cologrid.$pdata$_ZN8Cologrid6TMgrid13SetEvenBitmapEPN3Vcl8Graphics7TBitmapE
 0005:00000F3C       Cologrid.$pdata$_ZN8Cologrid6TMgrid16setCellAlignmentEN6System7Classes10TAlignmentE
 0005:00000F48       Cologrid.$pdata$_ZN8Cologrid6TMgrid14setBorderColorEN6System7Uitypes6TColorE
 0005:00000F54       Cologrid.$pdata$_ZN8Cologrid6TMgrid11setOddColorEN6System7Uitypes6TColorE
 0005:00000F60       Cologrid.$pdata$_ZN8Cologrid6TMgrid12setEvencolorEN6System7Uitypes6TColorE
 0005:00000F6C       Cologrid.$pdata$_ZN8Cologrid6TMgrid14AutoInitializeEv
 0005:00000F78       Cologrid.$pdata$_ZN8Cologrid6TMgrid11AutoDestroyEv
 0005:00000F84       Cologrid.$pdata$_ZN8Cologrid6TMgridC3EPN6System7Classes10TComponentE
 0005:00000F9C       Cologrid.$pdata$_ZN8Cologrid6TMgridD0Ev
 0005:00000FA8       Cologrid.$pdata$_ZN8Cologrid6TMgrid6LoadedEv
 0005:00000FB4       Cologrid.$pdata$_ZN8Cologrid6TMgrid5PaintEv
 0005:00000FC0       Cologrid.$pdata$_ZN8Cologrid6TMgrid12DrawCellTextEiiRKN6System5Types5TRectE
 0005:00000FD8       Cologrid.$pdata$_ZN8Cologrid6TMgrid8DrawCellEiiRKN6System5Types5TRectENS1_3SetIN3Vcl5Grids12Vcl_Grids__3ELS9_0ELS9_5EEE
 0005:00000FF0       Cologrid.$pdata$_ZN8Cologrid12FinalizationEv
 0005:00000FFC       Cologrid.$pdata$_ZN8Cologrid14initializationEv
 0005:00001008       OEdit.$pdata$_ZN5Oedit8RegisterEv
 0005:00001014       OEdit.$pdata$_ZN5Oedit8TOvrEditC3EPN6System7Classes10TComponentE
 0005:0000102C       OEdit.$pdata$_ZN5Oedit8TOvrEditD0Ev
 0005:00001038       OEdit.$pdata$_ZN5Oedit8TOvrEdit7KeyDownERtN6System3SetINS2_7Classes17System_Classes__1ELS5_0ELS5_10EEE
 0005:00001044       OEdit.$pdata$_ZN5Oedit8TOvrEdit8KeyPressERw
 0005:00001050       OEdit.$pdata$_ZN5Oedit8TOvrEdit17GetInsertKeyStateEv
 0005:0000105C       OEdit.$pdata$_ZN5Oedit8TOvrEdit6WMCharERN6Winapi8Messages6TWMKeyE
 0005:00001074       OEdit.$pdata$_ZN5Oedit12FinalizationEv
 0005:00001080       OEdit.$pdata$_ZN5Oedit14initializationEv
 0005:0000108C       Console2.$pdata$_ZN8Console23MinEii
 0005:00001098       Console2.$pdata$_ZN8Console23MaxEii
 0005:000010A4       Console2.$pdata$_ZN8Console28ExchangeERPvS1_
 0005:000010B0       Console2.$pdata$_ZN8Console27FillIntEPvji
 0005:000010BC       Console2.$pdata$_ZN8Console211TFixedFont_C3Ev
 0005:000010D4       Console2.$pdata$_ZN8Console211TFixedFont_6AssignEPN6System7Classes11TPersistentE
 0005:000010EC       Console2.$pdata$_ZN8Console211TFixedFont_10SetBkColorEN6System7Uitypes6TColorE
 0005:000010F8       Console2.$pdata$_ZN8Console29TConsole2C3EPN6System7Classes10TComponentE
 0005:00001110       Console2.$pdata$_ZN8Console29TConsole2D0Ev
 0005:0000111C       Console2.$pdata$_ZN8Console29TConsole26LoadedEv
 0005:00001128       Console2.$pdata$_ZN8Console29TConsole212CreateParamsERN3Vcl8Controls13TCreateParamsE
 0005:00001134       Console2.$pdata$_ZN8Console29TConsole226DefaultProcessControlCodesEPcj
 0005:00001140       Console2.$pdata$_ZN8Console29TConsole28WMCreateEPv
 0005:0000114C       Console2.$pdata$_ZN8Console29TConsole212ResizeBufferEv
 0005:00001158       Console2.$pdata$_ZN8Console29TConsole27SetColsEi
 0005:00001164       Console2.$pdata$_ZN8Console29TConsole27SetRowsEi
 0005:00001170       Console2.$pdata$_ZN8Console29TConsole27SetFontEPNS_11TFixedFont_E
 0005:0000117C       Console2.$pdata$_ZN8Console29TConsole211FontChangedEPN6System7TObjectE
 0005:00001194       Console2.$pdata$_ZN8Console29TConsole210SetMetricsERK14tagTEXTMETRICW
 0005:000011A0       Console2.$pdata$_ZN8Console29TConsole218RecalcSizeAndRangeEv
 0005:000011AC       Console2.$pdata$_ZN8Console29TConsole27SetNameEN6System13UnicodeStringE
 0005:000011B8       Console2.$pdata$_ZN8Console29TConsole29ScreenPtrEii
 0005:000011C4       Console2.$pdata$_ZN8Console29TConsole28ShowTextEii
 0005:000011D0       Console2.$pdata$_ZN8Console29TConsole210ShowCursorEv
 0005:000011DC       Console2.$pdata$_ZN8Console29TConsole210HideCursorEv
 0005:000011E8       Console2.$pdata$_ZN8Console29TConsole28CursorToEii
 0005:000011F4       Console2.$pdata$_ZN8Console29TConsole212LazyScrollByEii
 0005:00001200       Console2.$pdata$_ZN8Console29TConsole210CMScrollByERNS_11TCMScrollByE
 0005:0000120C       Console2.$pdata$_ZN8Console29TConsole28ScrollToEii
 0005:00001218       Console2.$pdata$_ZN8Console29TConsole215LazyTrackCursorEv
 0005:00001224       Console2.$pdata$_ZN8Console29TConsole213CMTrackCursorEPv
 0005:00001230       Console2.$pdata$_ZN8Console29TConsole211TrackCursorEv
 0005:0000123C       Console2.$pdata$_ZN8Console29TConsole213SetScrollbarsEv
 0005:00001248       Console2.$pdata$_ZN8Console29TConsole214InternalClrScrEv
 0005:00001254       Console2.$pdata$_ZN8Console29TConsole26ClrScrEv
 0005:00001260       Console2.$pdata$_ZN8Console29TConsole215RecalibrateFontEv
 0005:0000126C       Console2.$pdata$_ZN8Console29TConsole26ClrEolEv
 0005:00001278       Console2.$pdata$_ZN8Console29TConsole210WriteBlockEiiPcj
 0005:00001284       Console2.$pdata$_ZZN8Console29TConsole28WriteBufEPcjE6ReturnPv
 0005:00001290       Console2.$pdata$_ZZN8Console29TConsole28WriteBufEPcjE8LineFeedPv
 0005:0000129C       Console2.$pdata$_ZN8Console29TConsole28WriteBufEPcj
 0005:000012A8       Console2.$pdata$_ZN8Console29TConsole213WriteCodedBufEPcj
 0005:000012B4       Console2.$pdata$_ZN8Console29TConsole29WriteCharEc
 0005:000012C0       Console2.$pdata$_ZN8Console29TConsole211WriteStringEN6System13UnicodeStringE
 0005:000012D8       Console2.$pdata$_ZN8Console29TConsole29WriteFillEiicj
 0005:000012E4       Console2.$pdata$_ZN8Console29TConsole210KeyPressedEv
 0005:000012F0       Console2.$pdata$_ZN8Console29TConsole27ReadKeyEv
 0005:00001308       Console2.$pdata$_ZN8Console29TConsole27ReadBufEPcj
 0005:00001314       Console2.$pdata$_ZN8Console29CrtOutputERN6System8TTextRecE
 0005:00001320       Console2.$pdata$_ZN8Console28CrtInputERN6System8TTextRecE
 0005:0000132C       Console2.$pdata$_ZN8Console28CrtCloseERN6System8TTextRecE
 0005:00001338       Console2.$pdata$_ZN8Console27CrtOpenERN6System8TTextRecE
 0005:00001344       Console2.$pdata$_ZN8Console29TConsole29AssignCrtERN6System8TextfileE
 0005:00001350       Console2.$pdata$_ZN8Console29TConsole210SetOptionsEN6System3SetINS_15TConsole2OptionELS3_0ELS3_7EEE
 0005:0000135C       Console2.$pdata$_ZN8Console29TConsole25PaintEv
 0005:00001368       Console2.$pdata$_ZN8Console29TConsole26WMSizeERN6Winapi8Messages7TWMSizeE
 0005:00001374       Console2.$pdata$_ZZN8Console29TConsole28DoScrollEiiiE9GetNewPosPviii
 0005:00001380       Console2.$pdata$_ZN8Console29TConsole28DoScrollEiii
 0005:0000138C       Console2.$pdata$_ZN8Console29TConsole29WMHScrollERN6Winapi8Messages9TWMScrollE
 0005:00001398       Console2.$pdata$_ZN8Console29TConsole29WMVScrollERN6Winapi8Messages9TWMScrollE
 0005:000013A4       Console2.$pdata$_ZN8Console29TConsole28KeyPressERw
 0005:000013B0       Console2.$pdata$_ZN8Console29TConsole27KeyDownERtN6System3SetINS2_7Classes17System_Classes__1ELS5_0ELS5_10EEE
 0005:000013BC       Console2.$pdata$_ZN8Console29TConsole210WMSetFocusERN6Winapi8Messages11TWMSetFocusE
 0005:000013C8       Console2.$pdata$_ZN8Console29TConsole211WMKillFocusERN6Winapi8Messages12TWMKillFocusE
 0005:000013D4       Console2.$pdata$_ZN8Console29TConsole212WMGetDlgCodeERN6Winapi8Messages11TWMNoParamsE
 0005:000013E0       Console2.$pdata$_ZN8Console29TConsole212WMEraseBkgndERN6Winapi8Messages13TWMEraseBkgndE
 0005:000013EC       Console2.$pdata$_ZN8Console29TConsole211DoCtrlBreakEv
 0005:000013F8       Console2.$pdata$_ZN8Console29TConsole29MouseDownEN6System7Uitypes12TMouseButtonENS1_3SetINS1_7Classes17System_Classes__1ELS6_0ELS6_10EEEii
 0005:00001404       Console2.$pdata$_ZN8Console25TAttrC3EPNS_11TFixedFont_E
 0005:0000141C       Console2.$pdata$_ZN8Console212TAttrManagerC3Ev
 0005:00001434       Console2.$pdata$_ZN8Console212TAttrManagerD0Ev
 0005:00001440       Console2.$pdata$_ZN8Console212TAttrManager8GetCountEv
 0005:0000144C       Console2.$pdata$_ZN8Console212TAttrManager10InFreeListEPv
 0005:00001458       Console2.$pdata$_ZN8Console212TAttrManager14FirstFreeIndexEv
 0005:00001464       Console2.$pdata$_ZN8Console212TAttrManager13NextFreeIndexEPv
 0005:00001470       Console2.$pdata$_ZN8Console212TAttrManager7SetFreeEi
 0005:0000147C       Console2.$pdata$_ZN8Console212TAttrManager10AllocIndexEv
 0005:00001488       Console2.$pdata$_ZN8Console212TAttrManager8AllocateEPNS_11TFixedFont_E
 0005:00001494       Console2.$pdata$_ZN8Console212TAttrManager5ClearEv
 0005:000014A0       Console2.$pdata$_ZN8Console212TAttrManager9ReferenceEii
 0005:000014AC       Console2.$pdata$_ZN8Console212TAttrManager7GetAttrEi
 0005:000014B8       Console2.$pdata$_ZN8Console212TAttrManager7SetAttrEiPNS_5TAttrE
 0005:000014C4       Console2.$pdata$_ZN8Console214TColorConsole2C3EPN6System7Classes10TComponentE
 0005:000014DC       Console2.$pdata$_ZN8Console214TColorConsole2D0Ev
 0005:000014E8       Console2.$pdata$_ZN8Console214TColorConsole28IndexPtrEii
 0005:000014F4       Console2.$pdata$_ZN8Console214TColorConsole212ResizeBufferEv
 0005:0000150C       Console2.$pdata$_ZZN8Console214TColorConsole210SetMetricsERK14tagTEXTMETRICWE5CheckPvii
 0005:00001518       Console2.$pdata$_ZN8Console214TColorConsole210SetMetricsERK14tagTEXTMETRICW
 0005:00001524       Console2.$pdata$_ZN8Console214TColorConsole29WriteFillEiicj
 0005:00001530       Console2.$pdata$_ZZN8Console214TColorConsole28FillAttrEiijE11ReplaceAttrPviPij
 0005:0000153C       Console2.$pdata$_ZN8Console214TColorConsole28FillAttrEiij
 0005:00001548       Console2.$pdata$_ZN8Console214TColorConsole210WriteBlockEiiPcj
 0005:00001554       Console2.$pdata$_ZN8Console214TColorConsole25PaintEv
 0005:00001560       Console2.$pdata$_ZN8Console28RegisterEv
 0005:0000156C       Console2.$pdata$_ZN8Console212FinalizationEv
 0005:00001578       Console2.$pdata$_ZN8Console214initializationEv


Bound resource files

ComDrv32.dcr
zlog_requires.res
HemiBtn.dcr
JLLabel.dcr
zlog_requires.drf


Program entry point at 0001:000000000041A020
